(dp0
I0
(lp1
F0.001044
asI1
(lp2
F0.000916
asI2
(lp3
F0.00089
asI3
(lp4
F0.001008
asI4
(lp5
F0.000955
asI5
(lp6
F0.001737
asI6
(lp7
F0.001144
asI7
(lp8
F0.001259
asI8
(lp9
F0.002394
asI9
(lp10
F0.001348
asI10
(lp11
F0.001588
asI11
(lp12
F0.000965
asI12
(lp13
F0.000905
asI13
(lp14
F0.000913
asI14
(lp15
F0.001647
asI15
(lp16
F0.000862
asI16
(lp17
F0.000847
asI17
(lp18
F0.000869
asI18
(lp19
F0.000846
asI19
(lp20
F0.00084
asI20
(lp21
F0.000862
asI21
(lp22
F0.000871
asI22
(lp23
F0.000809
asI23
(lp24
F0.00083
asI24
(lp25
F0.001251
asI25
(lp26
F0.001479
asI26
(lp27
F0.002085
asI27
(lp28
F0.001323
asI28
(lp29
F0.001295
asI29
(lp30
F0.000974
asI30
(lp31
F0.000921
asI31
(lp32
F0.000837
asI32
(lp33
F0.000818
asI33
(lp34
F0.00092
asI34
(lp35
F0.000824
asI35
(lp36
F0.000808
asI36
(lp37
F0.000802
asI37
(lp38
F0.000802
asI38
(lp39
F0.000782
asI39
(lp40
F0.000777
asI40
(lp41
F0.000812
asI41
(lp42
F0.000825
asI42
(lp43
F0.000805
asI43
(lp44
F0.000809
asI44
(lp45
F0.000812
asI45
(lp46
F0.000809
asI46
(lp47
F0.000803
asI47
(lp48
F0.001191
asI48
(lp49
F0.001344
asI49
(lp50
F0.002058
asI50
(lp51
F0.001323
asI51
(lp52
F0.001175
asI52
(lp53
F0.000932
asI53
(lp54
F0.000847
asI54
(lp55
F0.000935
asI55
(lp56
F0.000893
asI56
(lp57
F0.000886
asI57
(lp58
F0.000943
asI58
(lp59
F0.000914
asI59
(lp60
F0.000886
asI60
(lp61
F0.000908
asI61
(lp62
F0.000861
asI62
(lp63
F0.000871
asI63
(lp64
F0.000831
asI64
(lp65
F0.000902
asI65
(lp66
F0.000882
asI66
(lp67
F0.000869
asI67
(lp68
F0.000873
asI68
(lp69
F0.0009
asI69
(lp70
F0.001322
asI70
(lp71
F0.001394
asI71
(lp72
F0.001837
asI72
(lp73
F0.001827
asI73
(lp74
F0.000925
asI74
(lp75
F0.000819
asI75
(lp76
F0.000894
asI76
(lp77
F0.000859
asI77
(lp78
F0.000894
asI78
(lp79
F0.000907
asI79
(lp80
F0.000877
asI80
(lp81
F0.000847
asI81
(lp82
F0.000798
asI82
(lp83
F0.000822
asI83
(lp84
F0.000786
asI84
(lp85
F0.000784
asI85
(lp86
F0.000781
asI86
(lp87
F0.000807
asI87
(lp88
F0.000795
asI88
(lp89
F0.000818
asI89
(lp90
F0.000795
asI90
(lp91
F0.00088
asI91
(lp92
F0.00131
asI92
(lp93
F0.001338
asI93
(lp94
F0.001063
asI94
(lp95
F0.001713
asI95
(lp96
F0.000873
asI96
(lp97
F0.000855
asI97
(lp98
F0.000816
asI98
(lp99
F0.000828
asI99
(lp100
F0.000825
asI100
(lp101
F0.000799
asI101
(lp102
F0.000804
asI102
(lp103
F0.000788
asI103
(lp104
F0.000937
asI104
(lp105
F0.001019
asI105
(lp106
F0.000869
asI106
(lp107
F0.000902
asI107
(lp108
F0.000877
asI108
(lp109
F0.000862
asI109
(lp110
F0.000883
asI110
(lp111
F0.000906
asI111
(lp112
F0.000866
asI112
(lp113
F0.000896
asI113
(lp114
F0.001233
asI114
(lp115
F0.001395
asI115
(lp116
F0.001652
asI116
(lp117
F0.001753
asI117
(lp118
F0.001054
asI118
(lp119
F0.000846
asI119
(lp120
F0.000893
asI120
(lp121
F0.000901
asI121
(lp122
F0.000894
asI122
(lp123
F0.000881
asI123
(lp124
F0.000885
asI124
(lp125
F0.000896
asI125
(lp126
F0.000878
asI126
(lp127
F0.000841
asI127
(lp128
F0.00093
asI128
(lp129
F0.000863
asI129
(lp130
F0.000812
asI130
(lp131
F0.000797
asI131
(lp132
F0.000801
asI132
(lp133
F0.000825
asI133
(lp134
F0.000809
asI134
(lp135
F0.000786
asI135
(lp136
F0.000813
asI136
(lp137
F0.001845
asI137
(lp138
F0.001424
asI138
(lp139
F0.001358
asI139
(lp140
F0.00166
asI140
(lp141
F0.001003
asI141
(lp142
F0.000923
asI142
(lp143
F0.000896
asI143
(lp144
F0.000889
asI144
(lp145
F0.000924
asI145
(lp146
F0.000858
asI146
(lp147
F0.000896
asI147
(lp148
F0.00086
asI148
(lp149
F0.000906
asI149
(lp150
F0.00092
asI150
(lp151
F0.000839
asI151
(lp152
F0.000807
asI152
(lp153
F0.000799
asI153
(lp154
F0.000801
asI154
(lp155
F0.00079
asI155
(lp156
F0.000804
asI156
(lp157
F0.00081
asI157
(lp158
F0.000801
asI158
(lp159
F0.000807
asI159
(lp160
F0.001238
asI160
(lp161
F0.001298
asI161
(lp162
F0.002082
asI162
(lp163
F0.001397
asI163
(lp164
F0.001217
asI164
(lp165
F0.000881
asI165
(lp166
F0.000896
asI166
(lp167
F0.000885
asI167
(lp168
F0.001054
asI168
(lp169
F0.001087
asI169
(lp170
F0.001515
asI170
(lp171
F0.001454
asI171
(lp172
F0.001339
asI172
(lp173
F0.001297
asI173
(lp174
F0.001418
asI174
(lp175
F0.000954
asI175
(lp176
F0.001373
asI176
(lp177
F0.001931
asI177
(lp178
F0.002275
asI178
(lp179
F0.00119
asI179
(lp180
F0.002506
asI180
(lp181
F0.001412
asI181
(lp182
F0.001
asI182
(lp183
F0.001074
asI183
(lp184
F0.000991
asI184
(lp185
F0.000996
asI185
(lp186
F0.000933
asI186
(lp187
F0.000976
asI187
(lp188
F0.000906
asI188
(lp189
F0.000873
asI189
(lp190
F0.000859
asI190
(lp191
F0.000915
asI191
(lp192
F0.000871
asI192
(lp193
F0.000915
asI193
(lp194
F0.000914
asI194
(lp195
F0.001256
asI195
(lp196
F0.001398
asI196
(lp197
F0.001464
asI197
(lp198
F0.001556
asI198
(lp199
F0.001104
asI199
(lp200
F0.000877
asI200
(lp201
F0.000962
asI201
(lp202
F0.000875
asI202
(lp203
F0.000963
asI203
(lp204
F0.00094
asI204
(lp205
F0.000937
asI205
(lp206
F0.000928
asI206
(lp207
F0.000996
asI207
(lp208
F0.000948
asI208
(lp209
F0.000983
asI209
(lp210
F0.000873
asI210
(lp211
F0.000815
asI211
(lp212
F0.000842
asI212
(lp213
F0.000825
asI213
(lp214
F0.000791
asI214
(lp215
F0.000812
asI215
(lp216
F0.0008
asI216
(lp217
F0.001941
asI217
(lp218
F0.001918
asI218
(lp219
F0.001173
asI219
(lp220
F0.001845
asI220
(lp221
F0.000938
asI221
(lp222
F0.000876
asI222
(lp223
F0.000815
asI223
(lp224
F0.000785
asI224
(lp225
F0.000822
asI225
(lp226
F0.000826
asI226
(lp227
F0.000844
asI227
(lp228
F0.000804
asI228
(lp229
F0.000808
asI229
(lp230
F0.000795
asI230
(lp231
F0.000923
asI231
(lp232
F0.000807
asI232
(lp233
F0.0008
asI233
(lp234
F0.000805
asI234
(lp235
F0.000804
asI235
(lp236
F0.000825
asI236
(lp237
F0.000818
asI237
(lp238
F0.000829
asI238
(lp239
F0.001324
asI239
(lp240
F0.001334
asI240
(lp241
F0.001213
asI241
(lp242
F0.001568
asI242
(lp243
F0.000961
asI243
(lp244
F0.000844
asI244
(lp245
F0.000833
asI245
(lp246
F0.000829
asI246
(lp247
F0.000825
asI247
(lp248
F0.000807
asI248
(lp249
F0.000782
asI249
(lp250
F0.000869
asI250
(lp251
F0.000944
asI251
(lp252
F0.000877
asI252
(lp253
F0.000894
asI253
(lp254
F0.000965
asI254
(lp255
F0.0009
asI255
(lp256
F0.000873
asI256
(lp257
F0.000853
asI257
(lp258
F0.000829
asI258
(lp259
F0.000829
asI259
(lp260
F0.00092
asI260
(lp261
F0.001028
asI261
(lp262
F0.00129
asI262
(lp263
F0.001359
asI263
(lp264
F0.001036
asI264
(lp265
F0.001875
asI265
(lp266
F0.000866
asI266
(lp267
F0.000824
asI267
(lp268
F0.000808
asI268
(lp269
F0.000808
asI269
(lp270
F0.000817
asI270
(lp271
F0.000811
asI271
(lp272
F0.000781
asI272
(lp273
F0.000867
asI273
(lp274
F0.000925
asI274
(lp275
F0.000861
asI275
(lp276
F0.000864
asI276
(lp277
F0.000914
asI277
(lp278
F0.000941
asI278
(lp279
F0.000812
asI279
(lp280
F0.00082
asI280
(lp281
F0.000807
asI281
(lp282
F0.00081
asI282
(lp283
F0.000789
asI283
(lp284
F0.00123
asI284
(lp285
F0.00133
asI285
(lp286
F0.002161
asI286
(lp287
F0.001611
asI287
(lp288
F0.001092
asI288
(lp289
F0.000818
asI289
(lp290
F0.000806
asI290
(lp291
F0.000823
asI291
(lp292
F0.000806
asI292
(lp293
F0.000796
asI293
(lp294
F0.000813
asI294
(lp295
F0.000804
asI295
(lp296
F0.000784
asI296
(lp297
F0.000797
asI297
(lp298
F0.000792
asI298
(lp299
F0.000806
asI299
(lp300
F0.000925
asI300
(lp301
F0.000951
asI301
(lp302
F0.0009
asI302
(lp303
F0.000873
asI303
(lp304
F0.000875
asI304
(lp305
F0.000936
asI305
(lp306
F0.001259
asI306
(lp307
F0.001365
asI307
(lp308
F0.001507
asI308
(lp309
F0.00161
asI309
(lp310
F0.001275
asI310
(lp311
F0.000876
asI311
(lp312
F0.000826
asI312
(lp313
F0.000841
asI313
(lp314
F0.000884
asI314
(lp315
F0.000857
asI315
(lp316
F0.000833
asI316
(lp317
F0.000807
asI317
(lp318
F0.000832
asI318
(lp319
F0.000847
asI319
(lp320
F0.000875
asI320
(lp321
F0.000876
asI321
(lp322
F0.000894
asI322
(lp323
F0.00094
asI323
(lp324
F0.000919
asI324
(lp325
F0.000901
asI325
(lp326
F0.000835
asI326
(lp327
F0.000817
asI327
(lp328
F0.001232
asI328
(lp329
F0.001356
asI329
(lp330
F0.002091
asI330
(lp331
F0.001821
asI331
(lp332
F0.001094
asI332
(lp333
F0.000826
asI333
(lp334
F0.000809
asI334
(lp335
F0.000823
asI335
(lp336
F0.000888
asI336
(lp337
F0.000908
asI337
(lp338
F0.000828
asI338
(lp339
F0.000806
asI339
(lp340
F0.000852
asI340
(lp341
F0.000831
asI341
(lp342
F0.000805
asI342
(lp343
F0.000818
asI343
(lp344
F0.000806
asI344
(lp345
F0.000922
asI345
(lp346
F0.000849
asI346
(lp347
F0.000786
asI347
(lp348
F0.000786
asI348
(lp349
F0.000784
asI349
(lp350
F0.001312
asI350
(lp351
F0.001872
asI351
(lp352
F0.001145
asI352
(lp353
F0.002001
asI353
(lp354
F0.001001
asI354
(lp355
F0.000922
asI355
(lp356
F0.000807
asI356
(lp357
F0.000814
asI357
(lp358
F0.000821
asI358
(lp359
F0.000835
asI359
(lp360
F0.000771
asI360
(lp361
F0.000812
asI361
(lp362
F0.000804
asI362
(lp363
F0.000819
asI363
(lp364
F0.000804
asI364
(lp365
F0.000777
asI365
(lp366
F0.000868
asI366
(lp367
F0.000898
asI367
(lp368
F0.000951
asI368
(lp369
F0.000876
asI369
(lp370
F0.000868
asI370
(lp371
F0.000908
asI371
(lp372
F0.001324
asI372
(lp373
F0.001309
asI373
(lp374
F0.001277
asI374
(lp375
F0.002006
asI375
(lp376
F0.000946
asI376
(lp377
F0.000928
asI377
(lp378
F0.000958
asI378
(lp379
F0.000817
asI379
(lp380
F0.000807
asI380
(lp381
F0.000806
asI381
(lp382
F0.00082
asI382
(lp383
F0.000821
asI383
(lp384
F0.000814
asI384
(lp385
F0.000805
asI385
(lp386
F0.000803
asI386
(lp387
F0.000805
asI387
(lp388
F0.00084
asI388
(lp389
F0.000794
asI389
(lp390
F0.000794
asI390
(lp391
F0.000846
asI391
(lp392
F0.000831
asI392
(lp393
F0.000795
asI393
(lp394
F0.000788
asI394
(lp395
F0.001211
asI395
(lp396
F0.001304
asI396
(lp397
F0.002076
asI397
(lp398
F0.001545
asI398
(lp399
F0.001272
asI399
(lp400
F0.00085
asI400
(lp401
F0.00092
asI401
(lp402
F0.000806
asI402
(lp403
F0.000826
asI403
(lp404
F0.000851
asI404
(lp405
F0.000731
asI405
(lp406
F0.000877
asI406
(lp407
F0.000835
asI407
(lp408
F0.000847
asI408
(lp409
F0.00086
asI409
(lp410
F0.000797
asI410
(lp411
F0.000836
asI411
(lp412
F0.000826
asI412
(lp413
F0.000833
asI413
(lp414
F0.000818
asI414
(lp415
F0.000874
asI415
(lp416
F0.000819
asI416
(lp417
F0.00125
asI417
(lp418
F0.001332
asI418
(lp419
F0.002051
asI419
(lp420
F0.00184
asI420
(lp421
F0.001105
asI421
(lp422
F0.000867
asI422
(lp423
F0.000973
asI423
(lp424
F0.000922
asI424
(lp425
F0.000827
asI425
(lp426
F0.000812
asI426
(lp427
F0.000817
asI427
(lp428
F0.000809
asI428
(lp429
F0.000875
asI429
(lp430
F0.000821
asI430
(lp431
F0.000794
asI431
(lp432
F0.000803
asI432
(lp433
F0.000832
asI433
(lp434
F0.000799
asI434
(lp435
F0.000801
asI435
(lp436
F0.000933
asI436
(lp437
F0.000885
asI437
(lp438
F0.000816
asI438
(lp439
F0.001254
asI439
(lp440
F0.001294
asI440
(lp441
F0.002035
asI441
(lp442
F0.001725
asI442
(lp443
F0.001117
asI443
(lp444
F0.000876
asI444
(lp445
F0.000956
asI445
(lp446
F0.000887
asI446
(lp447
F0.000868
asI447
(lp448
F0.000874
asI448
(lp449
F0.000859
asI449
(lp450
F0.000891
asI450
(lp451
F0.000874
asI451
(lp452
F0.00086
asI452
(lp453
F0.000868
asI453
(lp454
F0.000919
asI454
(lp455
F0.000864
asI455
(lp456
F0.000776
asI456
(lp457
F0.000796
asI457
(lp458
F0.00087
asI458
(lp459
F0.000832
asI459
(lp460
F0.001257
asI460
(lp461
F0.001311
asI461
(lp462
F0.001889
asI462
(lp463
F0.001934
asI463
(lp464
F0.000971
asI464
(lp465
F0.000816
asI465
(lp466
F0.000826
asI466
(lp467
F0.000952
asI467
(lp468
F0.000883
asI468
(lp469
F0.000835
asI469
(lp470
F0.000813
asI470
(lp471
F0.000797
asI471
(lp472
F0.000795
asI472
(lp473
F0.000848
asI473
(lp474
F0.000793
asI474
(lp475
F0.000789
asI475
(lp476
F0.000799
asI476
(lp477
F0.0008
asI477
(lp478
F0.000834
asI478
(lp479
F0.000797
asI479
(lp480
F0.0008
asI480
(lp481
F0.000834
asI481
(lp482
F0.001246
asI482
(lp483
F0.001284
asI483
(lp484
F0.001872
asI484
(lp485
F0.001593
asI485
(lp486
F0.0011
asI486
(lp487
F0.000909
asI487
(lp488
F0.000905
asI488
(lp489
F0.00096
asI489
(lp490
F0.000963
asI490
(lp491
F0.000882
asI491
(lp492
F0.00086
asI492
(lp493
F0.000848
asI493
(lp494
F0.000821
asI494
(lp495
F0.000826
asI495
(lp496
F0.000808
asI496
(lp497
F0.000815
asI497
(lp498
F0.000799
asI498
(lp499
F0.000798
asI499
(lp500
F0.000787
asI500
(lp501
F0.000825
asI501
(lp502
F0.00081
asI502
(lp503
F0.000874
asI503
(lp504
F0.001247
asI504
(lp505
F0.001244
asI505
(lp506
F0.001693
asI506
(lp507
F0.002098
asI507
(lp508
F0.000947
asI508
(lp509
F0.000923
asI509
(lp510
F0.000819
asI510
(lp511
F0.000892
asI511
(lp512
F0.000926
asI512
(lp513
F0.000898
asI513
(lp514
F0.000881
asI514
(lp515
F0.00091
asI515
(lp516
F0.000875
asI516
(lp517
F0.000864
asI517
(lp518
F0.000894
asI518
(lp519
F0.000885
asI519
(lp520
F0.000843
asI520
(lp521
F0.000879
asI521
(lp522
F0.000875
asI522
(lp523
F0.000802
asI523
(lp524
F0.000822
asI524
(lp525
F0.001226
asI525
(lp526
F0.001297
asI526
(lp527
F0.002141
asI527
(lp528
F0.001871
asI528
(lp529
F0.001226
asI529
(lp530
F0.000997
asI530
(lp531
F0.000904
asI531
(lp532
F0.000881
asI532
(lp533
F0.000907
asI533
(lp534
F0.000853
asI534
(lp535
F0.000817
asI535
(lp536
F0.000814
asI536
(lp537
F0.000819
asI537
(lp538
F0.000805
asI538
(lp539
F0.000811
asI539
(lp540
F0.000799
asI540
(lp541
F0.000796
asI541
(lp542
F0.000911
asI542
(lp543
F0.000888
asI543
(lp544
F0.000859
asI544
(lp545
F0.000835
asI545
(lp546
F0.001068
asI546
(lp547
F0.001326
asI547
(lp548
F0.001949
asI548
(lp549
F0.001318
asI549
(lp550
F0.001485
asI550
(lp551
F0.000904
asI551
(lp552
F0.000942
asI552
(lp553
F0.000919
asI553
(lp554
F0.000903
asI554
(lp555
F0.000909
asI555
(lp556
F0.00093
asI556
(lp557
F0.000884
asI557
(lp558
F0.000826
asI558
(lp559
F0.00081
asI559
(lp560
F0.000815
asI560
(lp561
F0.0008
asI561
(lp562
F0.000849
asI562
(lp563
F0.000821
asI563
(lp564
F0.000817
asI564
(lp565
F0.000783
asI565
(lp566
F0.000788
asI566
(lp567
F0.000793
asI567
(lp568
F0.00127
asI568
(lp569
F0.001478
asI569
(lp570
F0.001476
asI570
(lp571
F0.00188
asI571
(lp572
F0.001237
asI572
(lp573
F0.001099
asI573
(lp574
F0.000925
asI574
(lp575
F0.000824
asI575
(lp576
F0.000805
asI576
(lp577
F0.000781
asI577
(lp578
F0.00093
asI578
(lp579
F0.000876
asI579
(lp580
F0.000823
asI580
(lp581
F0.000791
asI581
(lp582
F0.000826
asI582
(lp583
F0.000795
asI583
(lp584
F0.000819
asI584
(lp585
F0.000789
asI585
(lp586
F0.000782
asI586
(lp587
F0.000805
asI587
(lp588
F0.000812
asI588
(lp589
F0.000944
asI589
(lp590
F0.001248
asI590
(lp591
F0.001363
asI591
(lp592
F0.001313
asI592
(lp593
F0.002413
asI593
(lp594
F0.001189
asI594
(lp595
F0.000853
asI595
(lp596
F0.000839
asI596
(lp597
F0.00078
asI597
(lp598
F0.000804
asI598
(lp599
F0.000795
asI599
(lp600
F0.000827
asI600
(lp601
F0.00094
asI601
(lp602
F0.00081
asI602
(lp603
F0.000799
asI603
(lp604
F0.000821
asI604
(lp605
F0.000786
asI605
(lp606
F0.00079
asI606
(lp607
F0.000801
asI607
(lp608
F0.000806
asI608
(lp609
F0.000815
asI609
(lp610
F0.000864
asI610
(lp611
F0.000877
asI611
(lp612
F0.001362
asI612
(lp613
F0.001725
asI613
(lp614
F0.001342
asI614
(lp615
F0.002099
asI615
(lp616
F0.000905
asI616
(lp617
F0.000848
asI617
(lp618
F0.000819
asI618
(lp619
F0.000874
asI619
(lp620
F0.000811
asI620
(lp621
F0.000805
asI621
(lp622
F0.000816
asI622
(lp623
F0.000796
asI623
(lp624
F0.000882
asI624
(lp625
F0.000866
asI625
(lp626
F0.00081
asI626
(lp627
F0.000782
asI627
(lp628
F0.000878
asI628
(lp629
F0.000858
asI629
(lp630
F0.000871
asI630
(lp631
F0.000894
asI631
(lp632
F0.000832
asI632
(lp633
F0.000836
asI633
(lp634
F0.001379
asI634
(lp635
F0.001836
asI635
(lp636
F0.001167
asI636
(lp637
F0.002024
asI637
(lp638
F0.000878
asI638
(lp639
F0.00086
asI639
(lp640
F0.000815
asI640
(lp641
F0.00081
asI641
(lp642
F0.000853
asI642
(lp643
F0.000821
asI643
(lp644
F0.000835
asI644
(lp645
F0.00086
asI645
(lp646
F0.000896
asI646
(lp647
F0.000929
asI647
(lp648
F0.000836
asI648
(lp649
F0.000816
asI649
(lp650
F0.000793
asI650
(lp651
F0.000883
asI651
(lp652
F0.000902
asI652
(lp653
F0.000886
asI653
(lp654
F0.000833
asI654
(lp655
F0.000821
asI655
(lp656
F0.001277
asI656
(lp657
F0.001301
asI657
(lp658
F0.00197
asI658
(lp659
F0.001648
asI659
(lp660
F0.001035
asI660
(lp661
F0.000825
asI661
(lp662
F0.000805
asI662
(lp663
F0.000882
asI663
(lp664
F0.000901
asI664
(lp665
F0.00088
asI665
(lp666
F0.000848
asI666
(lp667
F0.000869
asI667
(lp668
F0.000887
asI668
(lp669
F0.000964
asI669
(lp670
F0.000862
asI670
(lp671
F0.00082
asI671
(lp672
F0.000806
asI672
(lp673
F0.000799
asI673
(lp674
F0.000799
asI674
(lp675
F0.000808
asI675
(lp676
F0.000807
asI676
(lp677
F0.000804
asI677
(lp678
F0.001468
asI678
(lp679
F0.001802
asI679
(lp680
F0.001172
asI680
(lp681
F0.001596
asI681
(lp682
F0.00089
asI682
(lp683
F0.000858
asI683
(lp684
F0.000823
asI684
(lp685
F0.000822
asI685
(lp686
F0.000783
asI686
(lp687
F0.000827
asI687
(lp688
F0.000832
asI688
(lp689
F0.000896
asI689
(lp690
F0.000819
asI690
(lp691
F0.000826
asI691
(lp692
F0.000892
asI692
(lp693
F0.000829
asI693
(lp694
F0.000793
asI694
(lp695
F0.000801
asI695
(lp696
F0.000804
asI696
(lp697
F0.000813
asI697
(lp698
F0.000869
asI698
(lp699
F0.000807
asI699
(lp700
F0.001256
asI700
(lp701
F0.001334
asI701
(lp702
F0.002174
asI702
(lp703
F0.002042
asI703
(lp704
F0.001138
asI704
(lp705
F0.0009
asI705
(lp706
F0.000879
asI706
(lp707
F0.000864
asI707
(lp708
F0.000896
asI708
(lp709
F0.000859
asI709
(lp710
F0.000904
asI710
(lp711
F0.000887
asI711
(lp712
F0.000885
asI712
(lp713
F0.00096
asI713
(lp714
F0.000852
asI714
(lp715
F0.000811
asI715
(lp716
F0.000777
asI716
(lp717
F0.000779
asI717
(lp718
F0.000805
asI718
(lp719
F0.000798
asI719
(lp720
F0.00082
asI720
(lp721
F0.001222
asI721
(lp722
F0.001277
asI722
(lp723
F0.00207
asI723
(lp724
F0.00164
asI724
(lp725
F0.00098
asI725
(lp726
F0.000812
asI726
(lp727
F0.000886
asI727
(lp728
F0.000892
asI728
(lp729
F0.000889
asI729
(lp730
F0.000872
asI730
(lp731
F0.000874
asI731
(lp732
F0.000868
asI732
(lp733
F0.000856
asI733
(lp734
F0.000856
asI734
(lp735
F0.000886
asI735
(lp736
F0.000892
asI736
(lp737
F0.000895
asI737
(lp738
F0.000924
asI738
(lp739
F0.000863
asI739
(lp740
F0.000846
asI740
(lp741
F0.000818
asI741
(lp742
F0.000853
asI742
(lp743
F0.001344
asI743
(lp744
F0.001799
asI744
(lp745
F0.001108
asI745
(lp746
F0.001958
asI746
(lp747
F0.000902
asI747
(lp748
F0.000814
asI748
(lp749
F0.000822
asI749
(lp750
F0.000838
asI750
(lp751
F0.000871
asI751
(lp752
F0.000807
asI752
(lp753
F0.000891
asI753
(lp754
F0.000884
asI754
(lp755
F0.00094
asI755
(lp756
F0.000825
asI756
(lp757
F0.00081
asI757
(lp758
F0.000915
asI758
(lp759
F0.000851
asI759
(lp760
F0.000792
asI760
(lp761
F0.000807
asI761
(lp762
F0.000803
asI762
(lp763
F0.000803
asI763
(lp764
F0.000791
asI764
(lp765
F0.001322
asI765
(lp766
F0.00189
asI766
(lp767
F0.001158
asI767
(lp768
F0.002149
asI768
(lp769
F0.000936
asI769
(lp770
F0.000843
asI770
(lp771
F0.000809
asI771
(lp772
F0.00081
asI772
(lp773
F0.000813
asI773
(lp774
F0.000801
asI774
(lp775
F0.000789
asI775
(lp776
F0.000812
asI776
(lp777
F0.000839
asI777
(lp778
F0.000847
asI778
(lp779
F0.000795
asI779
(lp780
F0.000807
asI780
(lp781
F0.00088
asI781
(lp782
F0.000855
asI782
(lp783
F0.00081
asI783
(lp784
F0.000779
asI784
(lp785
F0.000795
asI785
(lp786
F0.000794
asI786
(lp787
F0.001218
asI787
(lp788
F0.001297
asI788
(lp789
F0.002091
asI789
(lp790
F0.001691
asI790
(lp791
F0.001237
asI791
(lp792
F0.000965
asI792
(lp793
F0.000832
asI793
(lp794
F0.000828
asI794
(lp795
F0.000801
asI795
(lp796
F0.000797
asI796
(lp797
F0.000833
asI797
(lp798
F0.000807
asI798
(lp799
F0.000806
asI799
(lp800
F0.000801
asI800
(lp801
F0.000823
asI801
(lp802
F0.000811
asI802
(lp803
F0.000828
asI803
(lp804
F0.000873
asI804
(lp805
F0.000828
asI805
(lp806
F0.000833
asI806
(lp807
F0.000805
asI807
(lp808
F0.000796
asI808
(lp809
F0.001202
asI809
(lp810
F0.001285
asI810
(lp811
F0.002106
asI811
(lp812
F0.001597
asI812
(lp813
F0.001386
asI813
(lp814
F0.000967
asI814
(lp815
F0.000887
asI815
(lp816
F0.000869
asI816
(lp817
F0.000797
asI817
(lp818
F0.00091
asI818
(lp819
F0.000927
asI819
(lp820
F0.000874
asI820
(lp821
F0.000865
asI821
(lp822
F0.000907
asI822
(lp823
F0.000889
asI823
(lp824
F0.000902
asI824
(lp825
F0.00091
asI825
(lp826
F0.000921
asI826
(lp827
F0.000898
asI827
(lp828
F0.000897
asI828
(lp829
F0.000842
asI829
(lp830
F0.001334
asI830
(lp831
F0.001787
asI831
(lp832
F0.001133
asI832
(lp833
F0.002039
asI833
(lp834
F0.00101
asI834
(lp835
F0.000973
asI835
(lp836
F0.001059
asI836
(lp837
F0.00093
asI837
(lp838
F0.000836
asI838
(lp839
F0.000861
asI839
(lp840
F0.001027
asI840
(lp841
F0.000813
asI841
(lp842
F0.000817
asI842
(lp843
F0.000828
asI843
(lp844
F0.00086
asI844
(lp845
F0.001317
asI845
(lp846
F0.001256
asI846
(lp847
F0.000857
asI847
(lp848
F0.000781
asI848
(lp849
F0.0008
asI849
(lp850
F0.00199
asI850
(lp851
F0.00178
asI851
(lp852
F0.001298
asI852
(lp853
F0.002229
asI853
(lp854
F0.001006
asI854
(lp855
F0.00088
asI855
(lp856
F0.00079
asI856
(lp857
F0.000793
asI857
(lp858
F0.000812
asI858
(lp859
F0.000837
asI859
(lp860
F0.000792
asI860
(lp861
F0.000794
asI861
(lp862
F0.000783
asI862
(lp863
F0.00081
asI863
(lp864
F0.000836
asI864
(lp865
F0.000802
asI865
(lp866
F0.000779
asI866
(lp867
F0.000798
asI867
(lp868
F0.000873
asI868
(lp869
F0.000807
asI869
(lp870
F0.000822
asI870
(lp871
F0.00082
asI871
(lp872
F0.00125
asI872
(lp873
F0.001298
asI873
(lp874
F0.001993
asI874
(lp875
F0.001788
asI875
(lp876
F0.001113
asI876
(lp877
F0.000914
asI877
(lp878
F0.001059
asI878
(lp879
F0.000893
asI879
(lp880
F0.000856
asI880
(lp881
F0.000889
asI881
(lp882
F0.000871
asI882
(lp883
F0.000873
asI883
(lp884
F0.000872
asI884
(lp885
F0.000869
asI885
(lp886
F0.000947
asI886
(lp887
F0.000925
asI887
(lp888
F0.000901
asI888
(lp889
F0.000867
asI889
(lp890
F0.000934
asI890
(lp891
F0.000906
asI891
(lp892
F0.000857
asI892
(lp893
F0.001315
asI893
(lp894
F0.001351
asI894
(lp895
F0.001319
asI895
(lp896
F0.00201
asI896
(lp897
F0.00097
asI897
(lp898
F0.0008
asI898
(lp899
F0.000807
asI899
(lp900
F0.000951
asI900
(lp901
F0.000828
asI901
(lp902
F0.000782
asI902
(lp903
F0.000799
asI903
(lp904
F0.00082
asI904
(lp905
F0.000835
asI905
(lp906
F0.000775
asI906
(lp907
F0.000788
asI907
(lp908
F0.000805
asI908
(lp909
F0.000831
asI909
(lp910
F0.000819
asI910
(lp911
F0.000851
asI911
(lp912
F0.0008
asI912
(lp913
F0.000892
asI913
(lp914
F0.000792
asI914
(lp915
F0.000781
asI915
(lp916
F0.001302
asI916
(lp917
F0.001842
asI917
(lp918
F0.001216
asI918
(lp919
F0.001696
asI919
(lp920
F0.001023
asI920
(lp921
F0.00085
asI921
(lp922
F0.000875
asI922
(lp923
F0.000894
asI923
(lp924
F0.000808
asI924
(lp925
F0.000813
asI925
(lp926
F0.000812
asI926
(lp927
F0.000804
asI927
(lp928
F0.000774
asI928
(lp929
F0.00079
asI929
(lp930
F0.000791
asI930
(lp931
F0.000919
asI931
(lp932
F0.000814
asI932
(lp933
F0.000797
asI933
(lp934
F0.000801
asI934
(lp935
F0.00081
asI935
(lp936
F0.00082
asI936
(lp937
F0.000878
asI937
(lp938
F0.001817
asI938
(lp939
F0.001809
asI939
(lp940
F0.001125
asI940
(lp941
F0.002003
asI941
(lp942
F0.000944
asI942
(lp943
F0.00079
asI943
(lp944
F0.00082
asI944
(lp945
F0.000942
asI945
(lp946
F0.000854
asI946
(lp947
F0.000804
asI947
(lp948
F0.000791
asI948
(lp949
F0.000823
asI949
(lp950
F0.000813
asI950
(lp951
F0.000797
asI951
(lp952
F0.000796
asI952
(lp953
F0.000818
asI953
(lp954
F0.000832
asI954
(lp955
F0.000797
asI955
(lp956
F0.000775
asI956
(lp957
F0.000786
asI957
(lp958
F0.000793
asI958
(lp959
F0.000896
asI959
(lp960
F0.001805
asI960
(lp961
F0.001775
asI961
(lp962
F0.001172
asI962
(lp963
F0.001717
asI963
(lp964
F0.000936
asI964
(lp965
F0.000846
asI965
(lp966
F0.000848
asI966
(lp967
F0.000795
asI967
(lp968
F0.000945
asI968
(lp969
F0.000861
asI969
(lp970
F0.000798
asI970
(lp971
F0.000831
asI971
(lp972
F0.000828
asI972
(lp973
F0.000832
asI973
(lp974
F0.00081
asI974
(lp975
F0.000781
asI975
(lp976
F0.000788
asI976
(lp977
F0.000819
asI977
(lp978
F0.000836
asI978
(lp979
F0.000826
asI979
(lp980
F0.0008
asI980
(lp981
F0.000824
asI981
(lp982
F0.001315
asI982
(lp983
F0.001348
asI983
(lp984
F0.001668
asI984
(lp985
F0.002113
asI985
(lp986
F0.000957
asI986
(lp987
F0.000861
asI987
(lp988
F0.000873
asI988
(lp989
F0.000887
asI989
(lp990
F0.000982
asI990
(lp991
F0.000874
asI991
(lp992
F0.000809
asI992
(lp993
F0.000831
asI993
(lp994
F0.000833
asI994
(lp995
F0.000842
asI995
(lp996
F0.000792
asI996
(lp997
F0.000809
asI997
(lp998
F0.000824
asI998
(lp999
F0.000832
asI999
(lp1000
F0.000814
as.