(dp0
I0
(lp1
F0.001363
asI1
(lp2
F0.001293
asI2
(lp3
F0.001117
asI3
(lp4
F0.00107
asI4
(lp5
F0.001694
asI5
(lp6
F0.002438
asI6
(lp7
F0.001474
asI7
(lp8
F0.003204
asI8
(lp9
F0.00136
asI9
(lp10
F0.001426
asI10
(lp11
F0.002583
asI11
(lp12
F0.001467
asI12
(lp13
F0.000877
asI13
(lp14
F0.000883
asI14
(lp15
F0.000857
asI15
(lp16
F0.000884
asI16
(lp17
F0.000988
asI17
(lp18
F0.001551
asI18
(lp19
F0.0013
asI19
(lp20
F0.002437
asI20
(lp21
F0.002506
asI21
(lp22
F0.001446
asI22
(lp23
F0.001151
asI23
(lp24
F0.00195
asI24
(lp25
F0.001234
asI25
(lp26
F0.00104
asI26
(lp27
F0.000945
asI27
(lp28
F0.000896
asI28
(lp29
F0.000933
asI29
(lp30
F0.000941
asI30
(lp31
F0.000918
asI31
(lp32
F0.000927
asI32
(lp33
F0.000933
asI33
(lp34
F0.000865
asI34
(lp35
F0.000853
asI35
(lp36
F0.000851
asI36
(lp37
F0.000806
asI37
(lp38
F0.000812
asI38
(lp39
F0.001452
asI39
(lp40
F0.001231
asI40
(lp41
F0.001382
asI41
(lp42
F0.002748
asI42
(lp43
F0.001634
asI43
(lp44
F0.001312
asI44
(lp45
F0.001236
asI45
(lp46
F0.001361
asI46
(lp47
F0.001323
asI47
(lp48
F0.000954
asI48
(lp49
F0.000984
asI49
(lp50
F0.00117
asI50
(lp51
F0.001137
asI51
(lp52
F0.000851
asI52
(lp53
F0.000846
asI53
(lp54
F0.000847
asI54
(lp55
F0.000817
asI55
(lp56
F0.002432
asI56
(lp57
F0.002502
asI57
(lp58
F0.001404
asI58
(lp59
F0.001543
asI59
(lp60
F0.00191
asI60
(lp61
F0.001188
asI61
(lp62
F0.000988
asI62
(lp63
F0.000901
asI63
(lp64
F0.000977
asI64
(lp65
F0.000873
asI65
(lp66
F0.000874
asI66
(lp67
F0.000946
asI67
(lp68
F0.000899
asI68
(lp69
F0.000876
asI69
(lp70
F0.000859
asI70
(lp71
F0.000899
asI71
(lp72
F0.000893
asI72
(lp73
F0.000854
asI73
(lp74
F0.000863
asI74
(lp75
F0.000816
asI75
(lp76
F0.002529
asI76
(lp77
F0.002599
asI77
(lp78
F0.001613
asI78
(lp79
F0.001075
asI79
(lp80
F0.002064
asI80
(lp81
F0.001115
asI81
(lp82
F0.00088
asI82
(lp83
F0.00085
asI83
(lp84
F0.000834
asI84
(lp85
F0.000802
asI85
(lp86
F0.000807
asI86
(lp87
F0.000845
asI87
(lp88
F0.000937
asI88
(lp89
F0.000893
asI89
(lp90
F0.000825
asI90
(lp91
F0.000829
asI91
(lp92
F0.000793
asI92
(lp93
F0.0008
asI93
(lp94
F0.000799
asI94
(lp95
F0.000805
asI95
(lp96
F0.002505
asI96
(lp97
F0.002572
asI97
(lp98
F0.00162
asI98
(lp99
F0.001036
asI99
(lp100
F0.001886
asI100
(lp101
F0.001111
asI101
(lp102
F0.000876
asI102
(lp103
F0.000814
asI103
(lp104
F0.000812
asI104
(lp105
F0.000843
asI105
(lp106
F0.000812
asI106
(lp107
F0.000809
asI107
(lp108
F0.000862
asI108
(lp109
F0.000914
asI109
(lp110
F0.000871
asI110
(lp111
F0.00082
asI111
(lp112
F0.000811
asI112
(lp113
F0.000809
asI113
(lp114
F0.000816
asI114
(lp115
F0.000812
asI115
(lp116
F0.001598
asI116
(lp117
F0.00116
asI117
(lp118
F0.001394
asI118
(lp119
F0.002518
asI119
(lp120
F0.001633
asI120
(lp121
F0.001264
asI121
(lp122
F0.001165
asI122
(lp123
F0.000808
asI123
(lp124
F0.000802
asI124
(lp125
F0.000808
asI125
(lp126
F0.000812
asI126
(lp127
F0.000821
asI127
(lp128
F0.000839
asI128
(lp129
F0.000853
asI129
(lp130
F0.000892
asI130
(lp131
F0.000894
asI131
(lp132
F0.000815
asI132
(lp133
F0.000826
asI133
(lp134
F0.000825
asI134
(lp135
F0.000786
asI135
(lp136
F0.000815
asI136
(lp137
F0.002505
asI137
(lp138
F0.002508
asI138
(lp139
F0.001578
asI139
(lp140
F0.001513
asI140
(lp141
F0.002068
asI141
(lp142
F0.001146
asI142
(lp143
F0.000885
asI143
(lp144
F0.000896
asI144
(lp145
F0.00088
asI145
(lp146
F0.000931
asI146
(lp147
F0.000879
asI147
(lp148
F0.000897
asI148
(lp149
F0.000907
asI149
(lp150
F0.000807
asI150
(lp151
F0.000821
asI151
(lp152
F0.000878
asI152
(lp153
F0.000829
asI153
(lp154
F0.000821
asI154
(lp155
F0.00081
asI155
(lp156
F0.000797
asI156
(lp157
F0.001673
asI157
(lp158
F0.001362
asI158
(lp159
F0.001954
asI159
(lp160
F0.001609
asI160
(lp161
F0.000991
asI161
(lp162
F0.001608
asI162
(lp163
F0.001258
asI163
(lp164
F0.000849
asI164
(lp165
F0.000823
asI165
(lp166
F0.000801
asI166
(lp167
F0.000807
asI167
(lp168
F0.00079
asI168
(lp169
F0.000865
asI169
(lp170
F0.000913
asI170
(lp171
F0.000814
asI171
(lp172
F0.00093
asI172
(lp173
F0.000845
asI173
(lp174
F0.000803
asI174
(lp175
F0.00084
asI175
(lp176
F0.000845
asI176
(lp177
F0.000827
asI177
(lp178
F0.001671
asI178
(lp179
F0.001257
asI179
(lp180
F0.001551
asI180
(lp181
F0.001676
asI181
(lp182
F0.001346
asI182
(lp183
F0.001842
asI183
(lp184
F0.001204
asI184
(lp185
F0.000812
asI185
(lp186
F0.000909
asI186
(lp187
F0.000896
asI187
(lp188
F0.000879
asI188
(lp189
F0.000954
asI189
(lp190
F0.000966
asI190
(lp191
F0.000854
asI191
(lp192
F0.000819
asI192
(lp193
F0.000826
asI193
(lp194
F0.000859
asI194
(lp195
F0.000809
asI195
(lp196
F0.000806
asI196
(lp197
F0.000831
asI197
(lp198
F0.000828
asI198
(lp199
F0.001586
asI199
(lp200
F0.001166
asI200
(lp201
F0.001603
asI201
(lp202
F0.001621
asI202
(lp203
F0.001388
asI203
(lp204
F0.002034
asI204
(lp205
F0.001287
asI205
(lp206
F0.000879
asI206
(lp207
F0.000858
asI207
(lp208
F0.000967
asI208
(lp209
F0.000895
asI209
(lp210
F0.000995
asI210
(lp211
F0.000847
asI211
(lp212
F0.000826
asI212
(lp213
F0.000819
asI213
(lp214
F0.00079
asI214
(lp215
F0.000813
asI215
(lp216
F0.000802
asI216
(lp217
F0.000832
asI217
(lp218
F0.000827
asI218
(lp219
F0.000813
asI219
(lp220
F0.001685
asI220
(lp221
F0.001416
asI221
(lp222
F0.001856
asI222
(lp223
F0.001644
asI223
(lp224
F0.000968
asI224
(lp225
F0.001581
asI225
(lp226
F0.001252
asI226
(lp227
F0.000839
asI227
(lp228
F0.00082
asI228
(lp229
F0.00079
asI229
(lp230
F0.000838
asI230
(lp231
F0.000839
asI231
(lp232
F0.000819
asI232
(lp233
F0.000823
asI233
(lp234
F0.000804
asI234
(lp235
F0.000802
asI235
(lp236
F0.000818
asI236
(lp237
F0.000804
asI237
(lp238
F0.000787
asI238
(lp239
F0.000813
asI239
(lp240
F0.000818
asI240
(lp241
F0.001263
asI241
(lp242
F0.002101
asI242
(lp243
F0.002392
asI243
(lp244
F0.001473
asI244
(lp245
F0.001024
asI245
(lp246
F0.002052
asI246
(lp247
F0.001129
asI247
(lp248
F0.00081
asI248
(lp249
F0.000798
asI249
(lp250
F0.000865
asI250
(lp251
F0.000828
asI251
(lp252
F0.00083
asI252
(lp253
F0.000832
asI253
(lp254
F0.000804
asI254
(lp255
F0.000809
asI255
(lp256
F0.000819
asI256
(lp257
F0.000808
asI257
(lp258
F0.000812
asI258
(lp259
F0.000808
asI259
(lp260
F0.000818
asI260
(lp261
F0.000827
asI261
(lp262
F0.000807
asI262
(lp263
F0.002566
asI263
(lp264
F0.002615
asI264
(lp265
F0.001479
asI265
(lp266
F0.001199
asI266
(lp267
F0.002083
asI267
(lp268
F0.001141
asI268
(lp269
F0.000851
asI269
(lp270
F0.000925
asI270
(lp271
F0.000926
asI271
(lp272
F0.000861
asI272
(lp273
F0.000846
asI273
(lp274
F0.000816
asI274
(lp275
F0.000798
asI275
(lp276
F0.000777
asI276
(lp277
F0.000862
asI277
(lp278
F0.000843
asI278
(lp279
F0.00084
asI279
(lp280
F0.000864
asI280
(lp281
F0.000844
asI281
(lp282
F0.000842
asI282
(lp283
F0.000895
asI283
(lp284
F0.002366
asI284
(lp285
F0.001682
asI285
(lp286
F0.001212
asI286
(lp287
F0.002106
asI287
(lp288
F0.001785
asI288
(lp289
F0.001204
asI289
(lp290
F0.00104
asI290
(lp291
F0.000987
asI291
(lp292
F0.00092
asI292
(lp293
F0.000838
asI293
(lp294
F0.000888
asI294
(lp295
F0.000858
asI295
(lp296
F0.000845
asI296
(lp297
F0.000899
asI297
(lp298
F0.000832
asI298
(lp299
F0.000853
asI299
(lp300
F0.000818
asI300
(lp301
F0.000825
asI301
(lp302
F0.000839
asI302
(lp303
F0.000848
asI303
(lp304
F0.002512
asI304
(lp305
F0.002592
asI305
(lp306
F0.001538
asI306
(lp307
F0.001589
asI307
(lp308
F0.001998
asI308
(lp309
F0.001092
asI309
(lp310
F0.000897
asI310
(lp311
F0.000859
asI311
(lp312
F0.00091
asI312
(lp313
F0.000831
asI313
(lp314
F0.000818
asI314
(lp315
F0.000821
asI315
(lp316
F0.000811
asI316
(lp317
F0.000779
asI317
(lp318
F0.000803
asI318
(lp319
F0.000806
asI319
(lp320
F0.000815
asI320
(lp321
F0.001083
asI321
(lp322
F0.001011
asI322
(lp323
F0.001079
asI323
(lp324
F0.001729
asI324
(lp325
F0.001475
asI325
(lp326
F0.00146
asI326
(lp327
F0.001098
asI327
(lp328
F0.003054
asI328
(lp329
F0.001114
asI329
(lp330
F0.000918
asI330
(lp331
F0.000893
asI331
(lp332
F0.000993
asI332
(lp333
F0.001754
asI333
(lp334
F0.001155
asI334
(lp335
F0.00088
asI335
(lp336
F0.000852
asI336
(lp337
F0.000866
asI337
(lp338
F0.000804
asI338
(lp339
F0.000849
asI339
(lp340
F0.000856
asI340
(lp341
F0.000882
asI341
(lp342
F0.002524
asI342
(lp343
F0.002568
asI343
(lp344
F0.001439
asI344
(lp345
F0.001072
asI345
(lp346
F0.002015
asI346
(lp347
F0.001381
asI347
(lp348
F0.000898
asI348
(lp349
F0.000895
asI349
(lp350
F0.000802
asI350
(lp351
F0.000848
asI351
(lp352
F0.00095
asI352
(lp353
F0.000975
asI353
(lp354
F0.000901
asI354
(lp355
F0.000884
asI355
(lp356
F0.000922
asI356
(lp357
F0.000892
asI357
(lp358
F0.000868
asI358
(lp359
F0.000887
asI359
(lp360
F0.000869
asI360
(lp361
F0.001489
asI361
(lp362
F0.001233
asI362
(lp363
F0.001314
asI363
(lp364
F0.002597
asI364
(lp365
F0.001375
asI365
(lp366
F0.001612
asI366
(lp367
F0.001437
asI367
(lp368
F0.000876
asI368
(lp369
F0.000847
asI369
(lp370
F0.000848
asI370
(lp371
F0.000799
asI371
(lp372
F0.00085
asI372
(lp373
F0.000817
asI373
(lp374
F0.000809
asI374
(lp375
F0.000807
asI375
(lp376
F0.000794
asI376
(lp377
F0.000831
asI377
(lp378
F0.000819
asI378
(lp379
F0.000844
asI379
(lp380
F0.000809
asI380
(lp381
F0.000826
asI381
(lp382
F0.002474
asI382
(lp383
F0.001688
asI383
(lp384
F0.001438
asI384
(lp385
F0.001384
asI385
(lp386
F0.001189
asI386
(lp387
F0.001522
asI387
(lp388
F0.001148
asI388
(lp389
F0.000848
asI389
(lp390
F0.000821
asI390
(lp391
F0.000836
asI391
(lp392
F0.000823
asI392
(lp393
F0.000843
asI393
(lp394
F0.000856
asI394
(lp395
F0.000819
asI395
(lp396
F0.00081
asI396
(lp397
F0.000838
asI397
(lp398
F0.000832
asI398
(lp399
F0.000861
asI399
(lp400
F0.000846
asI400
(lp401
F0.000888
asI401
(lp402
F0.001619
asI402
(lp403
F0.001407
asI403
(lp404
F0.001211
asI404
(lp405
F0.002251
asI405
(lp406
F0.001676
asI406
(lp407
F0.001548
asI407
(lp408
F0.00088
asI408
(lp409
F0.000827
asI409
(lp410
F0.000917
asI410
(lp411
F0.000905
asI411
(lp412
F0.000878
asI412
(lp413
F0.000912
asI413
(lp414
F0.000873
asI414
(lp415
F0.000871
asI415
(lp416
F0.000927
asI416
(lp417
F0.000872
asI417
(lp418
F0.000914
asI418
(lp419
F0.000967
asI419
(lp420
F0.000883
asI420
(lp421
F0.000898
asI421
(lp422
F0.001746
asI422
(lp423
F0.001489
asI423
(lp424
F0.001344
asI424
(lp425
F0.00243
asI425
(lp426
F0.001657
asI426
(lp427
F0.001395
asI427
(lp428
F0.001092
asI428
(lp429
F0.000804
asI429
(lp430
F0.000848
asI430
(lp431
F0.000814
asI431
(lp432
F0.000808
asI432
(lp433
F0.000827
asI433
(lp434
F0.000798
asI434
(lp435
F0.000805
asI435
(lp436
F0.000824
asI436
(lp437
F0.000813
asI437
(lp438
F0.000789
asI438
(lp439
F0.000939
asI439
(lp440
F0.000954
asI440
(lp441
F0.000855
asI441
(lp442
F0.000857
asI442
(lp443
F0.001696
asI443
(lp444
F0.00137
asI444
(lp445
F0.001432
asI445
(lp446
F0.001634
asI446
(lp447
F0.000976
asI447
(lp448
F0.001654
asI448
(lp449
F0.001289
asI449
(lp450
F0.000829
asI450
(lp451
F0.000808
asI451
(lp452
F0.000824
asI452
(lp453
F0.000801
asI453
(lp454
F0.000813
asI454
(lp455
F0.000809
asI455
(lp456
F0.000792
asI456
(lp457
F0.00082
asI457
(lp458
F0.000823
asI458
(lp459
F0.000873
asI459
(lp460
F0.000795
asI460
(lp461
F0.000798
asI461
(lp462
F0.000927
asI462
(lp463
F0.000873
asI463
(lp464
F0.002472
asI464
(lp465
F0.002488
asI465
(lp466
F0.001575
asI466
(lp467
F0.001538
asI467
(lp468
F0.002039
asI468
(lp469
F0.001137
asI469
(lp470
F0.000847
asI470
(lp471
F0.000817
asI471
(lp472
F0.000822
asI472
(lp473
F0.00082
asI473
(lp474
F0.000788
asI474
(lp475
F0.000779
asI475
(lp476
F0.000801
asI476
(lp477
F0.000824
asI477
(lp478
F0.000837
asI478
(lp479
F0.000804
asI479
(lp480
F0.00083
asI480
(lp481
F0.000812
asI481
(lp482
F0.000917
asI482
(lp483
F0.000899
asI483
(lp484
F0.000908
asI484
(lp485
F0.001718
asI485
(lp486
F0.001489
asI486
(lp487
F0.001348
asI487
(lp488
F0.002402
asI488
(lp489
F0.001616
asI489
(lp490
F0.001538
asI490
(lp491
F0.000991
asI491
(lp492
F0.000822
asI492
(lp493
F0.00082
asI493
(lp494
F0.000824
asI494
(lp495
F0.00085
asI495
(lp496
F0.000804
asI496
(lp497
F0.000834
asI497
(lp498
F0.000824
asI498
(lp499
F0.000903
asI499
(lp500
F0.000934
asI500
(lp501
F0.000851
asI501
(lp502
F0.000912
asI502
(lp503
F0.000841
asI503
(lp504
F0.000796
asI504
(lp505
F0.001677
asI505
(lp506
F0.001331
asI506
(lp507
F0.001925
asI507
(lp508
F0.001657
asI508
(lp509
F0.000999
asI509
(lp510
F0.00155
asI510
(lp511
F0.001237
asI511
(lp512
F0.000837
asI512
(lp513
F0.000817
asI513
(lp514
F0.000824
asI514
(lp515
F0.000809
asI515
(lp516
F0.000799
asI516
(lp517
F0.000801
asI517
(lp518
F0.000795
asI518
(lp519
F0.000844
asI519
(lp520
F0.000863
asI520
(lp521
F0.000835
asI521
(lp522
F0.000883
asI522
(lp523
F0.000826
asI523
(lp524
F0.000866
asI524
(lp525
F0.00089
asI525
(lp526
F0.0017
asI526
(lp527
F0.00134
asI527
(lp528
F0.001428
asI528
(lp529
F0.001663
asI529
(lp530
F0.002096
asI530
(lp531
F0.001216
asI531
(lp532
F0.000865
asI532
(lp533
F0.000813
asI533
(lp534
F0.001131
asI534
(lp535
F0.001179
asI535
(lp536
F0.000962
asI536
(lp537
F0.000875
asI537
(lp538
F0.000861
asI538
(lp539
F0.00094
asI539
(lp540
F0.000894
asI540
(lp541
F0.000877
asI541
(lp542
F0.000872
asI542
(lp543
F0.000874
asI543
(lp544
F0.000907
asI544
(lp545
F0.001141
asI545
(lp546
F0.001448
asI546
(lp547
F0.001746
asI547
(lp548
F0.00141
asI548
(lp549
F0.001694
asI549
(lp550
F0.001973
asI550
(lp551
F0.001256
asI551
(lp552
F0.000896
asI552
(lp553
F0.000864
asI553
(lp554
F0.000818
asI554
(lp555
F0.000818
asI555
(lp556
F0.000883
asI556
(lp557
F0.000894
asI557
(lp558
F0.000909
asI558
(lp559
F0.000941
asI559
(lp560
F0.000841
asI560
(lp561
F0.000831
asI561
(lp562
F0.000854
asI562
(lp563
F0.000818
asI563
(lp564
F0.000817
asI564
(lp565
F0.000845
asI565
(lp566
F0.001592
asI566
(lp567
F0.001274
asI567
(lp568
F0.001254
asI568
(lp569
F0.001727
asI569
(lp570
F0.001074
asI570
(lp571
F0.001554
asI571
(lp572
F0.001269
asI572
(lp573
F0.000842
asI573
(lp574
F0.000947
asI574
(lp575
F0.000921
asI575
(lp576
F0.00082
asI576
(lp577
F0.000908
asI577
(lp578
F0.000891
asI578
(lp579
F0.000832
asI579
(lp580
F0.000896
asI580
(lp581
F0.000828
asI581
(lp582
F0.000842
asI582
(lp583
F0.000902
asI583
(lp584
F0.000885
asI584
(lp585
F0.000844
asI585
(lp586
F0.00079
asI586
(lp587
F0.002526
asI587
(lp588
F0.002618
asI588
(lp589
F0.001592
asI589
(lp590
F0.001071
asI590
(lp591
F0.002009
asI591
(lp592
F0.00125
asI592
(lp593
F0.000844
asI593
(lp594
F0.000803
asI594
(lp595
F0.000814
asI595
(lp596
F0.000791
asI596
(lp597
F0.000808
asI597
(lp598
F0.000804
asI598
(lp599
F0.000819
asI599
(lp600
F0.000841
asI600
(lp601
F0.000825
asI601
(lp602
F0.000826
asI602
(lp603
F0.000843
asI603
(lp604
F0.00083
asI604
(lp605
F0.000777
asI605
(lp606
F0.000809
asI606
(lp607
F0.000888
asI607
(lp608
F0.002436
asI608
(lp609
F0.002474
asI609
(lp610
F0.002573
asI610
(lp611
F0.001089
asI611
(lp612
F0.001583
asI612
(lp613
F0.001382
asI613
(lp614
F0.000876
asI614
(lp615
F0.000832
asI615
(lp616
F0.000839
asI616
(lp617
F0.000827
asI617
(lp618
F0.000794
asI618
(lp619
F0.000804
asI619
(lp620
F0.000861
asI620
(lp621
F0.000901
asI621
(lp622
F0.000856
asI622
(lp623
F0.00082
asI623
(lp624
F0.000852
asI624
(lp625
F0.000824
asI625
(lp626
F0.00084
asI626
(lp627
F0.000844
asI627
(lp628
F0.002444
asI628
(lp629
F0.002499
asI629
(lp630
F0.001521
asI630
(lp631
F0.001866
asI631
(lp632
F0.001302
asI632
(lp633
F0.001057
asI633
(lp634
F0.000842
asI634
(lp635
F0.000832
asI635
(lp636
F0.000824
asI636
(lp637
F0.000812
asI637
(lp638
F0.000803
asI638
(lp639
F0.000883
asI639
(lp640
F0.000836
asI640
(lp641
F0.000822
asI641
(lp642
F0.000806
asI642
(lp643
F0.000817
asI643
(lp644
F0.000824
asI644
(lp645
F0.000812
asI645
(lp646
F0.00097
asI646
(lp647
F0.000934
asI647
(lp648
F0.00173
asI648
(lp649
F0.002508
asI649
(lp650
F0.001379
asI650
(lp651
F0.001172
asI651
(lp652
F0.001736
asI652
(lp653
F0.001242
asI653
(lp654
F0.000978
asI654
(lp655
F0.000805
asI655
(lp656
F0.000809
asI656
(lp657
F0.000823
asI657
(lp658
F0.000804
asI658
(lp659
F0.000805
asI659
(lp660
F0.000945
asI660
(lp661
F0.000888
asI661
(lp662
F0.000854
asI662
(lp663
F0.000824
asI663
(lp664
F0.000819
asI664
(lp665
F0.000795
asI665
(lp666
F0.000816
asI666
(lp667
F0.000802
asI667
(lp668
F0.000821
asI668
(lp669
F0.001612
asI669
(lp670
F0.001378
asI670
(lp671
F0.001455
asI671
(lp672
F0.001612
asI672
(lp673
F0.000978
asI673
(lp674
F0.001615
asI674
(lp675
F0.001295
asI675
(lp676
F0.000824
asI676
(lp677
F0.000841
asI677
(lp678
F0.000815
asI678
(lp679
F0.000849
asI679
(lp680
F0.000874
asI680
(lp681
F0.000822
asI681
(lp682
F0.000877
asI682
(lp683
F0.000866
asI683
(lp684
F0.000876
asI684
(lp685
F0.000871
asI685
(lp686
F0.000851
asI686
(lp687
F0.000854
asI687
(lp688
F0.000818
asI688
(lp689
F0.000833
asI689
(lp690
F0.001698
asI690
(lp691
F0.001303
asI691
(lp692
F0.001478
asI692
(lp693
F0.001641
asI693
(lp694
F0.001367
asI694
(lp695
F0.001999
asI695
(lp696
F0.001191
asI696
(lp697
F0.000846
asI697
(lp698
F0.000801
asI698
(lp699
F0.000805
asI699
(lp700
F0.000827
asI700
(lp701
F0.000938
asI701
(lp702
F0.000845
asI702
(lp703
F0.000933
asI703
(lp704
F0.000822
asI704
(lp705
F0.000807
asI705
(lp706
F0.000804
asI706
(lp707
F0.000797
asI707
(lp708
F0.000819
asI708
(lp709
F0.000813
asI709
(lp710
F0.000814
asI710
(lp711
F0.001538
asI711
(lp712
F0.00127
asI712
(lp713
F0.001318
asI713
(lp714
F0.002544
asI714
(lp715
F0.001437
asI715
(lp716
F0.001364
asI716
(lp717
F0.001198
asI717
(lp718
F0.000907
asI718
(lp719
F0.000842
asI719
(lp720
F0.000842
asI720
(lp721
F0.000956
asI721
(lp722
F0.00081
asI722
(lp723
F0.000851
asI723
(lp724
F0.000865
asI724
(lp725
F0.000819
asI725
(lp726
F0.000826
asI726
(lp727
F0.000826
asI727
(lp728
F0.000811
asI728
(lp729
F0.000803
asI729
(lp730
F0.000862
asI730
(lp731
F0.002556
asI731
(lp732
F0.002561
asI732
(lp733
F0.001435
asI733
(lp734
F0.001226
asI734
(lp735
F0.002062
asI735
(lp736
F0.001128
asI736
(lp737
F0.000842
asI737
(lp738
F0.000844
asI738
(lp739
F0.000859
asI739
(lp740
F0.000783
asI740
(lp741
F0.000872
asI741
(lp742
F0.000836
asI742
(lp743
F0.000852
asI743
(lp744
F0.000849
asI744
(lp745
F0.000805
asI745
(lp746
F0.00081
asI746
(lp747
F0.000792
asI747
(lp748
F0.000803
asI748
(lp749
F0.000815
asI749
(lp750
F0.000822
asI750
(lp751
F0.000828
asI751
(lp752
F0.001576
asI752
(lp753
F0.00131
asI753
(lp754
F0.001252
asI754
(lp755
F0.002477
asI755
(lp756
F0.001627
asI756
(lp757
F0.001297
asI757
(lp758
F0.001118
asI758
(lp759
F0.000824
asI759
(lp760
F0.00082
asI760
(lp761
F0.000923
asI761
(lp762
F0.000911
asI762
(lp763
F0.000877
asI763
(lp764
F0.000836
asI764
(lp765
F0.000885
asI765
(lp766
F0.000839
asI766
(lp767
F0.000817
asI767
(lp768
F0.000829
asI768
(lp769
F0.000811
asI769
(lp770
F0.000852
asI770
(lp771
F0.000811
asI771
(lp772
F0.000806
asI772
(lp773
F0.00164
asI773
(lp774
F0.001256
asI774
(lp775
F0.001275
asI775
(lp776
F0.002525
asI776
(lp777
F0.00159
asI777
(lp778
F0.001372
asI778
(lp779
F0.001237
asI779
(lp780
F0.000875
asI780
(lp781
F0.000931
asI781
(lp782
F0.000897
asI782
(lp783
F0.000922
asI783
(lp784
F0.000877
asI784
(lp785
F0.00081
asI785
(lp786
F0.000804
asI786
(lp787
F0.000816
asI787
(lp788
F0.000788
asI788
(lp789
F0.000883
asI789
(lp790
F0.000854
asI790
(lp791
F0.000852
asI791
(lp792
F0.000867
asI792
(lp793
F0.001634
asI793
(lp794
F0.001309
asI794
(lp795
F0.002029
asI795
(lp796
F0.001597
asI796
(lp797
F0.000988
asI797
(lp798
F0.001719
asI798
(lp799
F0.001169
asI799
(lp800
F0.000854
asI800
(lp801
F0.000888
asI801
(lp802
F0.001002
asI802
(lp803
F0.00088
asI803
(lp804
F0.000891
asI804
(lp805
F0.000816
asI805
(lp806
F0.000814
asI806
(lp807
F0.000829
asI807
(lp808
F0.000816
asI808
(lp809
F0.000807
asI809
(lp810
F0.000874
asI810
(lp811
F0.000898
asI811
(lp812
F0.00091
asI812
(lp813
F0.000923
asI813
(lp814
F0.001713
asI814
(lp815
F0.00144
asI815
(lp816
F0.001402
asI816
(lp817
F0.001859
asI817
(lp818
F0.001038
asI818
(lp819
F0.001507
asI819
(lp820
F0.001343
asI820
(lp821
F0.000955
asI821
(lp822
F0.000911
asI822
(lp823
F0.000883
asI823
(lp824
F0.000941
asI824
(lp825
F0.000888
asI825
(lp826
F0.000876
asI826
(lp827
F0.000923
asI827
(lp828
F0.000875
asI828
(lp829
F0.000839
asI829
(lp830
F0.000848
asI830
(lp831
F0.00081
asI831
(lp832
F0.000802
asI832
(lp833
F0.000808
asI833
(lp834
F0.000898
asI834
(lp835
F0.001629
asI835
(lp836
F0.001248
asI836
(lp837
F0.001215
asI837
(lp838
F0.002487
asI838
(lp839
F0.002004
asI839
(lp840
F0.00132
asI840
(lp841
F0.000882
asI841
(lp842
F0.000812
asI842
(lp843
F0.000816
asI843
(lp844
F0.000892
asI844
(lp845
F0.000843
asI845
(lp846
F0.000811
asI846
(lp847
F0.000827
asI847
(lp848
F0.000812
asI848
(lp849
F0.000807
asI849
(lp850
F0.000805
asI850
(lp851
F0.000803
asI851
(lp852
F0.000817
asI852
(lp853
F0.000805
asI853
(lp854
F0.000797
asI854
(lp855
F0.000846
asI855
(lp856
F0.001608
asI856
(lp857
F0.001309
asI857
(lp858
F0.001229
asI858
(lp859
F0.001612
asI859
(lp860
F0.00209
asI860
(lp861
F0.001294
asI861
(lp862
F0.000898
asI862
(lp863
F0.000862
asI863
(lp864
F0.000921
asI864
(lp865
F0.000827
asI865
(lp866
F0.000884
asI866
(lp867
F0.000813
asI867
(lp868
F0.000807
asI868
(lp869
F0.000796
asI869
(lp870
F0.00079
asI870
(lp871
F0.000845
asI871
(lp872
F0.000807
asI872
(lp873
F0.000828
asI873
(lp874
F0.000862
asI874
(lp875
F0.00084
asI875
(lp876
F0.001601
asI876
(lp877
F0.001263
asI877
(lp878
F0.001567
asI878
(lp879
F0.001646
asI879
(lp880
F0.001057
asI880
(lp881
F0.001891
asI881
(lp882
F0.001504
asI882
(lp883
F0.000898
asI883
(lp884
F0.000878
asI884
(lp885
F0.000848
asI885
(lp886
F0.000843
asI886
(lp887
F0.000801
asI887
(lp888
F0.000808
asI888
(lp889
F0.000914
asI889
(lp890
F0.000834
asI890
(lp891
F0.000842
asI891
(lp892
F0.000819
asI892
(lp893
F0.000817
asI893
(lp894
F0.000846
asI894
(lp895
F0.000895
asI895
(lp896
F0.000861
asI896
(lp897
F0.00154
asI897
(lp898
F0.001334
asI898
(lp899
F0.001999
asI899
(lp900
F0.001567
asI900
(lp901
F0.001032
asI901
(lp902
F0.001582
asI902
(lp903
F0.001381
asI903
(lp904
F0.00087
asI904
(lp905
F0.000852
asI905
(lp906
F0.00087
asI906
(lp907
F0.000849
asI907
(lp908
F0.000816
asI908
(lp909
F0.000868
asI909
(lp910
F0.000854
asI910
(lp911
F0.000814
asI911
(lp912
F0.000796
asI912
(lp913
F0.000802
asI913
(lp914
F0.000815
asI914
(lp915
F0.000834
asI915
(lp916
F0.000845
asI916
(lp917
F0.000818
asI917
(lp918
F0.002512
asI918
(lp919
F0.001693
asI919
(lp920
F0.001222
asI920
(lp921
F0.001508
asI921
(lp922
F0.001346
asI922
(lp923
F0.00152
asI923
(lp924
F0.001234
asI924
(lp925
F0.00089
asI925
(lp926
F0.00086
asI926
(lp927
F0.000821
asI927
(lp928
F0.000859
asI928
(lp929
F0.000807
asI929
(lp930
F0.00094
asI930
(lp931
F0.000951
asI931
(lp932
F0.000889
asI932
(lp933
F0.000945
asI933
(lp934
F0.000881
asI934
(lp935
F0.000914
asI935
(lp936
F0.000946
asI936
(lp937
F0.000908
asI937
(lp938
F0.001683
asI938
(lp939
F0.002162
asI939
(lp940
F0.001425
asI940
(lp941
F0.001555
asI941
(lp942
F0.001334
asI942
(lp943
F0.0016
asI943
(lp944
F0.001294
asI944
(lp945
F0.000945
asI945
(lp946
F0.000916
asI946
(lp947
F0.000903
asI947
(lp948
F0.000861
asI948
(lp949
F0.000973
asI949
(lp950
F0.000882
asI950
(lp951
F0.000861
asI951
(lp952
F0.000842
asI952
(lp953
F0.000889
asI953
(lp954
F0.000873
asI954
(lp955
F0.000908
asI955
(lp956
F0.00086
asI956
(lp957
F0.00086
asI957
(lp958
F0.001701
asI958
(lp959
F0.00173
asI959
(lp960
F0.001301
asI960
(lp961
F0.002041
asI961
(lp962
F0.001871
asI962
(lp963
F0.001294
asI963
(lp964
F0.00101
asI964
(lp965
F0.000911
asI965
(lp966
F0.000952
asI966
(lp967
F0.000922
asI967
(lp968
F0.000882
asI968
(lp969
F0.000893
asI969
(lp970
F0.000879
asI970
(lp971
F0.000868
asI971
(lp972
F0.000871
asI972
(lp973
F0.000864
asI973
(lp974
F0.000942
asI974
(lp975
F0.001194
asI975
(lp976
F0.000851
asI976
(lp977
F0.00159
asI977
(lp978
F0.001362
asI978
(lp979
F0.001673
asI979
(lp980
F0.001499
asI980
(lp981
F0.000946
asI981
(lp982
F0.001624
asI982
(lp983
F0.001349
asI983
(lp984
F0.000921
asI984
(lp985
F0.00091
asI985
(lp986
F0.000887
asI986
(lp987
F0.00092
asI987
(lp988
F0.000887
asI988
(lp989
F0.000879
asI989
(lp990
F0.000868
asI990
(lp991
F0.000863
asI991
(lp992
F0.000853
asI992
(lp993
F0.000876
asI993
(lp994
F0.000846
asI994
(lp995
F0.000855
asI995
(lp996
F0.000864
asI996
(lp997
F0.001603
asI997
(lp998
F0.001288
asI998
(lp999
F0.001234
asI999
(lp1000
F0.002472
asI1000
(lp1001
F0.001755
asI1001
(lp1002
F0.001367
asI1002
(lp1003
F0.001021
asI1003
(lp1004
F0.00083
asI1004
(lp1005
F0.000835
asI1005
(lp1006
F0.000842
asI1006
(lp1007
F0.000831
asI1007
(lp1008
F0.000843
asI1008
(lp1009
F0.000826
asI1009
(lp1010
F0.000904
asI1010
(lp1011
F0.000855
asI1011
(lp1012
F0.000966
asI1012
(lp1013
F0.000852
asI1013
(lp1014
F0.00085
asI1014
(lp1015
F0.000863
asI1015
(lp1016
F0.000936
asI1016
(lp1017
F0.001716
asI1017
(lp1018
F0.002597
asI1018
(lp1019
F0.001356
asI1019
(lp1020
F0.001112
asI1020
(lp1021
F0.002114
asI1021
(lp1022
F0.001174
asI1022
(lp1023
F0.000841
asI1023
(lp1024
F0.000828
asI1024
(lp1025
F0.000849
asI1025
(lp1026
F0.000792
asI1026
(lp1027
F0.00082
asI1027
(lp1028
F0.000826
asI1028
(lp1029
F0.000796
asI1029
(lp1030
F0.000836
asI1030
(lp1031
F0.000845
asI1031
(lp1032
F0.000886
asI1032
(lp1033
F0.000923
asI1033
(lp1034
F0.000822
asI1034
(lp1035
F0.000842
asI1035
(lp1036
F0.0008
asI1036
(lp1037
F0.001583
asI1037
(lp1038
F0.001225
asI1038
(lp1039
F0.001263
asI1039
(lp1040
F0.002477
asI1040
(lp1041
F0.001696
asI1041
(lp1042
F0.001451
asI1042
(lp1043
F0.001049
asI1043
(lp1044
F0.00092
asI1044
(lp1045
F0.000911
asI1045
(lp1046
F0.000908
asI1046
(lp1047
F0.000903
asI1047
(lp1048
F0.000897
asI1048
(lp1049
F0.000926
asI1049
(lp1050
F0.000914
asI1050
(lp1051
F0.000871
asI1051
(lp1052
F0.000905
asI1052
(lp1053
F0.000864
asI1053
(lp1054
F0.000891
asI1054
(lp1055
F0.000887
asI1055
(lp1056
F0.000931
asI1056
(lp1057
F0.001747
asI1057
(lp1058
F0.001542
asI1058
(lp1059
F0.001348
asI1059
(lp1060
F0.001608
asI1060
(lp1061
F0.001215
asI1061
(lp1062
F0.00146
asI1062
(lp1063
F0.001227
asI1063
(lp1064
F0.000863
asI1064
(lp1065
F0.000816
asI1065
(lp1066
F0.000842
asI1066
(lp1067
F0.000913
asI1067
(lp1068
F0.000908
asI1068
(lp1069
F0.000864
asI1069
(lp1070
F0.000891
asI1070
(lp1071
F0.000904
asI1071
(lp1072
F0.000939
asI1072
(lp1073
F0.000903
asI1073
(lp1074
F0.000891
asI1074
(lp1075
F0.000909
asI1075
(lp1076
F0.000876
asI1076
(lp1077
F0.000888
asI1077
(lp1078
F0.001695
asI1078
(lp1079
F0.001338
asI1079
(lp1080
F0.001429
asI1080
(lp1081
F0.001626
asI1081
(lp1082
F0.001434
asI1082
(lp1083
F0.001856
asI1083
(lp1084
F0.001373
asI1084
(lp1085
F0.000857
asI1085
(lp1086
F0.00081
asI1086
(lp1087
F0.000835
asI1087
(lp1088
F0.000843
asI1088
(lp1089
F0.000838
asI1089
(lp1090
F0.000814
asI1090
(lp1091
F0.0008
asI1091
(lp1092
F0.000807
asI1092
(lp1093
F0.000872
asI1093
(lp1094
F0.000819
asI1094
(lp1095
F0.000854
asI1095
(lp1096
F0.000972
asI1096
(lp1097
F0.000853
asI1097
(lp1098
F0.000923
asI1098
(lp1099
F0.001752
asI1099
(lp1100
F0.001551
asI1100
(lp1101
F0.00129
asI1101
(lp1102
F0.00233
asI1102
(lp1103
F0.001299
asI1103
(lp1104
F0.00086
asI1104
(lp1105
F0.000808
asI1105
(lp1106
F0.000813
asI1106
(lp1107
F0.000811
asI1107
(lp1108
F0.000784
asI1108
(lp1109
F0.000808
asI1109
(lp1110
F0.00081
asI1110
(lp1111
F0.000831
asI1111
(lp1112
F0.000832
asI1112
(lp1113
F0.00086
asI1113
(lp1114
F0.000857
asI1114
(lp1115
F0.000907
asI1115
(lp1116
F0.000815
asI1116
(lp1117
F0.000804
asI1117
(lp1118
F0.00082
asI1118
(lp1119
F0.001709
asI1119
(lp1120
F0.001259
asI1120
(lp1121
F0.001477
asI1121
(lp1122
F0.00166
asI1122
(lp1123
F0.001383
asI1123
(lp1124
F0.001841
asI1124
(lp1125
F0.001164
asI1125
(lp1126
F0.000873
asI1126
(lp1127
F0.000819
asI1127
(lp1128
F0.000809
asI1128
(lp1129
F0.000811
asI1129
(lp1130
F0.000806
asI1130
(lp1131
F0.0008
asI1131
(lp1132
F0.000878
asI1132
(lp1133
F0.000924
asI1133
(lp1134
F0.000872
asI1134
(lp1135
F0.000849
asI1135
(lp1136
F0.000855
asI1136
(lp1137
F0.000908
asI1137
(lp1138
F0.000843
asI1138
(lp1139
F0.000843
asI1139
(lp1140
F0.001604
asI1140
(lp1141
F0.001184
asI1141
(lp1142
F0.001286
asI1142
(lp1143
F0.002559
asI1143
(lp1144
F0.001459
asI1144
(lp1145
F0.001421
asI1145
(lp1146
F0.001093
asI1146
(lp1147
F0.000862
asI1147
(lp1148
F0.000846
asI1148
(lp1149
F0.000884
asI1149
(lp1150
F0.0009
asI1150
(lp1151
F0.000909
asI1151
(lp1152
F0.000929
asI1152
(lp1153
F0.000881
asI1153
(lp1154
F0.000916
asI1154
(lp1155
F0.000887
asI1155
(lp1156
F0.000912
asI1156
(lp1157
F0.000905
asI1157
(lp1158
F0.000874
asI1158
(lp1159
F0.000932
asI1159
(lp1160
F0.001742
asI1160
(lp1161
F0.001559
asI1161
(lp1162
F0.001295
asI1162
(lp1163
F0.002342
asI1163
(lp1164
F0.002076
asI1164
(lp1165
F0.001188
asI1165
(lp1166
F0.00084
asI1166
(lp1167
F0.00082
asI1167
(lp1168
F0.000891
asI1168
(lp1169
F0.000893
asI1169
(lp1170
F0.000875
asI1170
(lp1171
F0.000902
asI1171
(lp1172
F0.000928
asI1172
(lp1173
F0.00093
asI1173
(lp1174
F0.000893
asI1174
(lp1175
F0.000887
asI1175
(lp1176
F0.000895
asI1176
(lp1177
F0.000909
asI1177
(lp1178
F0.000869
asI1178
(lp1179
F0.00087
asI1179
(lp1180
F0.001671
asI1180
(lp1181
F0.001396
asI1181
(lp1182
F0.001476
asI1182
(lp1183
F0.001619
asI1183
(lp1184
F0.000971
asI1184
(lp1185
F0.001528
asI1185
(lp1186
F0.0013
asI1186
(lp1187
F0.000824
asI1187
(lp1188
F0.000843
asI1188
(lp1189
F0.000862
asI1189
(lp1190
F0.000802
asI1190
(lp1191
F0.000817
asI1191
(lp1192
F0.000837
asI1192
(lp1193
F0.00086
asI1193
(lp1194
F0.000817
asI1194
(lp1195
F0.000813
asI1195
(lp1196
F0.000855
asI1196
(lp1197
F0.000904
asI1197
(lp1198
F0.000865
asI1198
(lp1199
F0.000812
asI1199
(lp1200
F0.000819
asI1200
(lp1201
F0.002506
asI1201
(lp1202
F0.002541
asI1202
(lp1203
F0.001519
asI1203
(lp1204
F0.001541
asI1204
(lp1205
F0.002041
asI1205
(lp1206
F0.001253
asI1206
(lp1207
F0.000883
asI1207
(lp1208
F0.000816
asI1208
(lp1209
F0.000918
asI1209
(lp1210
F0.000883
asI1210
(lp1211
F0.000923
asI1211
(lp1212
F0.000892
asI1212
(lp1213
F0.00089
asI1213
(lp1214
F0.000867
asI1214
(lp1215
F0.000885
asI1215
(lp1216
F0.000864
asI1216
(lp1217
F0.000814
asI1217
(lp1218
F0.00081
asI1218
(lp1219
F0.000811
asI1219
(lp1220
F0.000822
asI1220
(lp1221
F0.001677
asI1221
(lp1222
F0.001356
asI1222
(lp1223
F0.001914
asI1223
(lp1224
F0.001646
asI1224
(lp1225
F0.000983
asI1225
(lp1226
F0.001543
asI1226
(lp1227
F0.001198
asI1227
(lp1228
F0.000809
asI1228
(lp1229
F0.00079
asI1229
(lp1230
F0.000783
asI1230
(lp1231
F0.000827
asI1231
(lp1232
F0.000821
asI1232
(lp1233
F0.000835
asI1233
(lp1234
F0.000787
asI1234
(lp1235
F0.000819
asI1235
(lp1236
F0.000841
asI1236
(lp1237
F0.000818
asI1237
(lp1238
F0.000796
asI1238
(lp1239
F0.000849
asI1239
(lp1240
F0.000824
asI1240
(lp1241
F0.000819
asI1241
(lp1242
F0.001605
asI1242
(lp1243
F0.001191
asI1243
(lp1244
F0.001363
asI1244
(lp1245
F0.002503
asI1245
(lp1246
F0.001411
asI1246
(lp1247
F0.001599
asI1247
(lp1248
F0.001039
asI1248
(lp1249
F0.000928
asI1249
(lp1250
F0.000882
asI1250
(lp1251
F0.000907
asI1251
(lp1252
F0.000943
asI1252
(lp1253
F0.000849
asI1253
(lp1254
F0.000823
asI1254
(lp1255
F0.000911
asI1255
(lp1256
F0.000929
asI1256
(lp1257
F0.000839
asI1257
(lp1258
F0.000808
asI1258
(lp1259
F0.000816
asI1259
(lp1260
F0.000794
asI1260
(lp1261
F0.000822
asI1261
(lp1262
F0.002476
asI1262
(lp1263
F0.002628
asI1263
(lp1264
F0.001473
asI1264
(lp1265
F0.001056
asI1265
(lp1266
F0.002082
asI1266
(lp1267
F0.001136
asI1267
(lp1268
F0.00088
asI1268
(lp1269
F0.000908
asI1269
(lp1270
F0.000852
asI1270
(lp1271
F0.000821
asI1271
(lp1272
F0.000866
asI1272
(lp1273
F0.0008
asI1273
(lp1274
F0.000798
asI1274
(lp1275
F0.000801
asI1275
(lp1276
F0.000873
asI1276
(lp1277
F0.00084
asI1277
(lp1278
F0.000792
asI1278
(lp1279
F0.000824
asI1279
(lp1280
F0.00081
asI1280
(lp1281
F0.000833
asI1281
(lp1282
F0.002507
asI1282
(lp1283
F0.002611
asI1283
(lp1284
F0.001444
asI1284
(lp1285
F0.00109
asI1285
(lp1286
F0.001567
asI1286
(lp1287
F0.001372
asI1287
(lp1288
F0.000839
asI1288
(lp1289
F0.00087
asI1289
(lp1290
F0.000909
asI1290
(lp1291
F0.000876
asI1291
(lp1292
F0.000869
asI1292
(lp1293
F0.00084
asI1293
(lp1294
F0.000861
asI1294
(lp1295
F0.000936
asI1295
(lp1296
F0.000909
asI1296
(lp1297
F0.000836
asI1297
(lp1298
F0.000788
asI1298
(lp1299
F0.000813
asI1299
(lp1300
F0.000819
asI1300
(lp1301
F0.000818
asI1301
(lp1302
F0.00169
asI1302
(lp1303
F0.001416
asI1303
(lp1304
F0.001449
asI1304
(lp1305
F0.001647
asI1305
(lp1306
F0.000961
asI1306
(lp1307
F0.001571
asI1307
(lp1308
F0.001295
asI1308
(lp1309
F0.000832
asI1309
(lp1310
F0.000822
asI1310
(lp1311
F0.00081
asI1311
(lp1312
F0.000865
asI1312
(lp1313
F0.000801
asI1313
(lp1314
F0.000835
asI1314
(lp1315
F0.000823
asI1315
(lp1316
F0.000876
asI1316
(lp1317
F0.000791
asI1317
(lp1318
F0.000823
asI1318
(lp1319
F0.000828
asI1319
(lp1320
F0.000826
asI1320
(lp1321
F0.000818
asI1321
(lp1322
F0.000793
asI1322
(lp1323
F0.001548
asI1323
(lp1324
F0.00135
asI1324
(lp1325
F0.00128
asI1325
(lp1326
F0.002468
asI1326
(lp1327
F0.001734
asI1327
(lp1328
F0.001295
asI1328
(lp1329
F0.001145
asI1329
(lp1330
F0.000837
asI1330
(lp1331
F0.000921
asI1331
(lp1332
F0.000927
asI1332
(lp1333
F0.000849
asI1333
(lp1334
F0.000823
asI1334
(lp1335
F0.000843
asI1335
(lp1336
F0.000825
asI1336
(lp1337
F0.000817
asI1337
(lp1338
F0.000824
asI1338
(lp1339
F0.000829
asI1339
(lp1340
F0.000826
asI1340
(lp1341
F0.000814
asI1341
(lp1342
F0.000806
asI1342
(lp1343
F0.000846
asI1343
(lp1344
F0.002521
asI1344
(lp1345
F0.001646
asI1345
(lp1346
F0.001428
asI1346
(lp1347
F0.001907
asI1347
(lp1348
F0.001851
asI1348
(lp1349
F0.001257
asI1349
(lp1350
F0.001015
asI1350
(lp1351
F0.000935
asI1351
(lp1352
F0.000912
asI1352
(lp1353
F0.000921
asI1353
(lp1354
F0.000879
asI1354
(lp1355
F0.000927
asI1355
(lp1356
F0.000882
asI1356
(lp1357
F0.000827
asI1357
(lp1358
F0.000841
asI1358
(lp1359
F0.00085
asI1359
(lp1360
F0.000837
asI1360
(lp1361
F0.000815
asI1361
(lp1362
F0.000804
asI1362
(lp1363
F0.000822
asI1363
(lp1364
F0.001723
asI1364
(lp1365
F0.001293
asI1365
(lp1366
F0.001237
asI1366
(lp1367
F0.001653
asI1367
(lp1368
F0.001504
asI1368
(lp1369
F0.001398
asI1369
(lp1370
F0.00115
asI1370
(lp1371
F0.000933
asI1371
(lp1372
F0.000897
asI1372
(lp1373
F0.000926
asI1373
(lp1374
F0.000923
asI1374
(lp1375
F0.000889
asI1375
(lp1376
F0.0009
asI1376
(lp1377
F0.000828
asI1377
(lp1378
F0.000825
asI1378
(lp1379
F0.000835
asI1379
(lp1380
F0.000796
asI1380
(lp1381
F0.000813
asI1381
(lp1382
F0.000847
asI1382
(lp1383
F0.000875
asI1383
(lp1384
F0.00082
asI1384
(lp1385
F0.002557
asI1385
(lp1386
F0.002536
asI1386
(lp1387
F0.001619
asI1387
(lp1388
F0.001046
asI1388
(lp1389
F0.00196
asI1389
(lp1390
F0.001236
asI1390
(lp1391
F0.000863
asI1391
(lp1392
F0.000908
asI1392
(lp1393
F0.00084
asI1393
(lp1394
F0.000804
asI1394
(lp1395
F0.000816
asI1395
(lp1396
F0.00087
asI1396
(lp1397
F0.000805
asI1397
(lp1398
F0.000798
asI1398
(lp1399
F0.000809
asI1399
(lp1400
F0.000831
asI1400
(lp1401
F0.000866
asI1401
(lp1402
F0.000804
asI1402
(lp1403
F0.000803
asI1403
(lp1404
F0.000823
asI1404
(lp1405
F0.002622
asI1405
(lp1406
F0.002498
asI1406
(lp1407
F0.001616
asI1407
(lp1408
F0.001532
asI1408
(lp1409
F0.002057
asI1409
(lp1410
F0.001152
asI1410
(lp1411
F0.000904
asI1411
(lp1412
F0.000946
asI1412
(lp1413
F0.000901
asI1413
(lp1414
F0.000825
asI1414
(lp1415
F0.00087
asI1415
(lp1416
F0.000851
asI1416
(lp1417
F0.000836
asI1417
(lp1418
F0.000818
asI1418
(lp1419
F0.000816
asI1419
(lp1420
F0.000931
asI1420
(lp1421
F0.000957
asI1421
(lp1422
F0.000813
asI1422
(lp1423
F0.000846
asI1423
(lp1424
F0.00082
asI1424
(lp1425
F0.001732
asI1425
(lp1426
F0.001497
asI1426
(lp1427
F0.001343
asI1427
(lp1428
F0.002369
asI1428
(lp1429
F0.002009
asI1429
(lp1430
F0.001164
asI1430
(lp1431
F0.001007
asI1431
(lp1432
F0.000939
asI1432
(lp1433
F0.000914
asI1433
(lp1434
F0.000893
asI1434
(lp1435
F0.000965
asI1435
(lp1436
F0.000836
asI1436
(lp1437
F0.000818
asI1437
(lp1438
F0.000814
asI1438
(lp1439
F0.000793
asI1439
(lp1440
F0.000807
asI1440
(lp1441
F0.000869
asI1441
(lp1442
F0.000847
asI1442
(lp1443
F0.00079
asI1443
(lp1444
F0.000835
asI1444
(lp1445
F0.002535
asI1445
(lp1446
F0.002591
asI1446
(lp1447
F0.001601
asI1447
(lp1448
F0.001515
asI1448
(lp1449
F0.002059
asI1449
(lp1450
F0.001175
asI1450
(lp1451
F0.000951
asI1451
(lp1452
F0.000874
asI1452
(lp1453
F0.00083
asI1453
(lp1454
F0.000815
asI1454
(lp1455
F0.000833
asI1455
(lp1456
F0.000819
asI1456
(lp1457
F0.0008
asI1457
(lp1458
F0.000826
asI1458
(lp1459
F0.000812
asI1459
(lp1460
F0.000781
asI1460
(lp1461
F0.000832
asI1461
(lp1462
F0.000908
asI1462
(lp1463
F0.000832
asI1463
(lp1464
F0.000941
asI1464
(lp1465
F0.001695
asI1465
(lp1466
F0.00139
asI1466
(lp1467
F0.0012
asI1467
(lp1468
F0.002257
asI1468
(lp1469
F0.001502
asI1469
(lp1470
F0.001349
asI1470
(lp1471
F0.001216
asI1471
(lp1472
F0.000869
asI1472
(lp1473
F0.000837
asI1473
(lp1474
F0.000894
asI1474
(lp1475
F0.000857
asI1475
(lp1476
F0.000885
asI1476
(lp1477
F0.000901
asI1477
(lp1478
F0.000814
asI1478
(lp1479
F0.000844
asI1479
(lp1480
F0.000822
asI1480
(lp1481
F0.000797
asI1481
(lp1482
F0.000814
asI1482
(lp1483
F0.000817
asI1483
(lp1484
F0.001005
asI1484
(lp1485
F0.001599
asI1485
(lp1486
F0.001326
asI1486
(lp1487
F0.001521
asI1487
(lp1488
F0.001684
asI1488
(lp1489
F0.000986
asI1489
(lp1490
F0.001618
asI1490
(lp1491
F0.001257
asI1491
(lp1492
F0.000875
asI1492
(lp1493
F0.00082
asI1493
(lp1494
F0.000825
asI1494
(lp1495
F0.000865
asI1495
(lp1496
F0.00087
asI1496
(lp1497
F0.000817
asI1497
(lp1498
F0.000828
asI1498
(lp1499
F0.000803
asI1499
(lp1500
F0.00082
asI1500
(lp1501
F0.000795
asI1501
(lp1502
F0.000822
asI1502
(lp1503
F0.000814
asI1503
(lp1504
F0.000825
asI1504
(lp1505
F0.000833
asI1505
(lp1506
F0.002454
asI1506
(lp1507
F0.002543
asI1507
(lp1508
F0.001429
asI1508
(lp1509
F0.001064
asI1509
(lp1510
F0.00199
asI1510
(lp1511
F0.001101
asI1511
(lp1512
F0.000876
asI1512
(lp1513
F0.000833
asI1513
(lp1514
F0.000819
asI1514
(lp1515
F0.000796
asI1515
(lp1516
F0.000826
asI1516
(lp1517
F0.000814
asI1517
(lp1518
F0.00083
asI1518
(lp1519
F0.000842
asI1519
(lp1520
F0.000845
asI1520
(lp1521
F0.000832
asI1521
(lp1522
F0.000832
asI1522
(lp1523
F0.000814
asI1523
(lp1524
F0.000875
asI1524
(lp1525
F0.000829
asI1525
(lp1526
F0.00253
asI1526
(lp1527
F0.002576
asI1527
(lp1528
F0.001459
asI1528
(lp1529
F0.001212
asI1529
(lp1530
F0.002091
asI1530
(lp1531
F0.001243
asI1531
(lp1532
F0.000927
asI1532
(lp1533
F0.000848
asI1533
(lp1534
F0.000838
asI1534
(lp1535
F0.000889
asI1535
(lp1536
F0.000864
asI1536
(lp1537
F0.000896
asI1537
(lp1538
F0.000892
asI1538
(lp1539
F0.000877
asI1539
(lp1540
F0.000897
asI1540
(lp1541
F0.000903
asI1541
(lp1542
F0.000873
asI1542
(lp1543
F0.000902
asI1543
(lp1544
F0.000959
asI1544
(lp1545
F0.000896
asI1545
(lp1546
F0.001721
asI1546
(lp1547
F0.001412
asI1547
(lp1548
F0.00139
asI1548
(lp1549
F0.002384
asI1549
(lp1550
F0.001468
asI1550
(lp1551
F0.001315
asI1551
(lp1552
F0.001125
asI1552
(lp1553
F0.000942
asI1553
(lp1554
F0.000873
asI1554
(lp1555
F0.000988
asI1555
(lp1556
F0.000876
asI1556
(lp1557
F0.000925
asI1557
(lp1558
F0.000946
asI1558
(lp1559
F0.000834
asI1559
(lp1560
F0.000807
asI1560
(lp1561
F0.000824
asI1561
(lp1562
F0.000821
asI1562
(lp1563
F0.000827
asI1563
(lp1564
F0.000848
asI1564
(lp1565
F0.000846
asI1565
(lp1566
F0.001733
asI1566
(lp1567
F0.001428
asI1567
(lp1568
F0.001421
asI1568
(lp1569
F0.001031
asI1569
(lp1570
F0.001576
asI1570
(lp1571
F0.001363
asI1571
(lp1572
F0.000914
asI1572
(lp1573
F0.000856
asI1573
(lp1574
F0.000938
asI1574
(lp1575
F0.000959
asI1575
(lp1576
F0.000896
asI1576
(lp1577
F0.000907
asI1577
(lp1578
F0.000903
asI1578
(lp1579
F0.00088
asI1579
(lp1580
F0.000892
asI1580
(lp1581
F0.000843
asI1581
(lp1582
F0.000898
asI1582
(lp1583
F0.000947
asI1583
(lp1584
F0.000856
asI1584
(lp1585
F0.001618
asI1585
(lp1586
F0.001319
asI1586
(lp1587
F0.001979
asI1587
(lp1588
F0.00163
asI1588
(lp1589
F0.000989
asI1589
(lp1590
F0.001723
asI1590
(lp1591
F0.001409
asI1591
(lp1592
F0.000836
asI1592
(lp1593
F0.000897
asI1593
(lp1594
F0.00088
asI1594
(lp1595
F0.000857
asI1595
(lp1596
F0.000844
asI1596
(lp1597
F0.000843
asI1597
(lp1598
F0.000793
asI1598
(lp1599
F0.000845
asI1599
(lp1600
F0.000892
asI1600
(lp1601
F0.000822
asI1601
(lp1602
F0.000811
asI1602
(lp1603
F0.000863
asI1603
(lp1604
F0.000833
asI1604
(lp1605
F0.001434
asI1605
(lp1606
F0.001192
asI1606
(lp1607
F0.001358
asI1607
(lp1608
F0.002572
asI1608
(lp1609
F0.001612
asI1609
(lp1610
F0.00152
asI1610
(lp1611
F0.0011
asI1611
(lp1612
F0.000806
asI1612
(lp1613
F0.000819
asI1613
(lp1614
F0.000867
asI1614
(lp1615
F0.000885
asI1615
(lp1616
F0.00088
asI1616
(lp1617
F0.000833
asI1617
(lp1618
F0.000825
asI1618
(lp1619
F0.000837
asI1619
(lp1620
F0.000821
asI1620
(lp1621
F0.000821
asI1621
(lp1622
F0.000835
asI1622
(lp1623
F0.000958
asI1623
(lp1624
F0.000874
asI1624
(lp1625
F0.001587
asI1625
(lp1626
F0.001178
asI1626
(lp1627
F0.001328
asI1627
(lp1628
F0.002519
asI1628
(lp1629
F0.00156
asI1629
(lp1630
F0.001377
asI1630
(lp1631
F0.001203
asI1631
(lp1632
F0.000839
asI1632
(lp1633
F0.000927
asI1633
(lp1634
F0.000858
asI1634
(lp1635
F0.000817
asI1635
(lp1636
F0.000841
asI1636
(lp1637
F0.000801
asI1637
(lp1638
F0.000811
asI1638
(lp1639
F0.000812
asI1639
(lp1640
F0.000819
asI1640
(lp1641
F0.000795
asI1641
(lp1642
F0.0008
asI1642
(lp1643
F0.000943
asI1643
(lp1644
F0.000885
asI1644
(lp1645
F0.001562
asI1645
(lp1646
F0.001319
asI1646
(lp1647
F0.002004
asI1647
(lp1648
F0.001607
asI1648
(lp1649
F0.00099
asI1649
(lp1650
F0.001637
asI1650
(lp1651
F0.001386
asI1651
(lp1652
F0.00086
asI1652
(lp1653
F0.000884
asI1653
(lp1654
F0.000834
asI1654
(lp1655
F0.000829
asI1655
(lp1656
F0.000819
asI1656
(lp1657
F0.000819
asI1657
(lp1658
F0.000812
asI1658
(lp1659
F0.000804
asI1659
(lp1660
F0.000809
asI1660
(lp1661
F0.000811
asI1661
(lp1662
F0.000808
asI1662
(lp1663
F0.000873
asI1663
(lp1664
F0.00084
asI1664
(lp1665
F0.00082
asI1665
(lp1666
F0.001333
asI1666
(lp1667
F0.001205
asI1667
(lp1668
F0.001363
asI1668
(lp1669
F0.002613
asI1669
(lp1670
F0.001311
asI1670
(lp1671
F0.001596
asI1671
(lp1672
F0.001159
asI1672
(lp1673
F0.000881
asI1673
(lp1674
F0.000937
asI1674
(lp1675
F0.000945
asI1675
(lp1676
F0.000886
asI1676
(lp1677
F0.000903
asI1677
(lp1678
F0.00091
asI1678
(lp1679
F0.00084
asI1679
(lp1680
F0.000825
asI1680
(lp1681
F0.000812
asI1681
(lp1682
F0.000833
asI1682
(lp1683
F0.00085
asI1683
(lp1684
F0.000812
asI1684
(lp1685
F0.000804
asI1685
(lp1686
F0.001434
asI1686
(lp1687
F0.001257
asI1687
(lp1688
F0.001365
asI1688
(lp1689
F0.002528
asI1689
(lp1690
F0.001455
asI1690
(lp1691
F0.001481
asI1691
(lp1692
F0.001011
asI1692
(lp1693
F0.001014
asI1693
(lp1694
F0.000936
asI1694
(lp1695
F0.000856
asI1695
(lp1696
F0.000822
asI1696
(lp1697
F0.000818
asI1697
(lp1698
F0.000864
asI1698
(lp1699
F0.000836
asI1699
(lp1700
F0.000821
asI1700
(lp1701
F0.000828
asI1701
(lp1702
F0.000839
asI1702
(lp1703
F0.000924
asI1703
(lp1704
F0.000923
asI1704
(lp1705
F0.00095
asI1705
(lp1706
F0.001721
asI1706
(lp1707
F0.001171
asI1707
(lp1708
F0.001336
asI1708
(lp1709
F0.002552
asI1709
(lp1710
F0.001407
asI1710
(lp1711
F0.001463
asI1711
(lp1712
F0.00111
asI1712
(lp1713
F0.000966
asI1713
(lp1714
F0.000912
asI1714
(lp1715
F0.000842
asI1715
(lp1716
F0.000861
asI1716
(lp1717
F0.000827
asI1717
(lp1718
F0.000803
asI1718
(lp1719
F0.000823
asI1719
(lp1720
F0.000817
asI1720
(lp1721
F0.000794
asI1721
(lp1722
F0.000797
asI1722
(lp1723
F0.000848
asI1723
(lp1724
F0.000828
asI1724
(lp1725
F0.000794
asI1725
(lp1726
F0.000789
asI1726
(lp1727
F0.00167
asI1727
(lp1728
F0.001264
asI1728
(lp1729
F0.001531
asI1729
(lp1730
F0.001616
asI1730
(lp1731
F0.001061
asI1731
(lp1732
F0.001774
asI1732
(lp1733
F0.001313
asI1733
(lp1734
F0.000824
asI1734
(lp1735
F0.000922
asI1735
(lp1736
F0.00083
asI1736
(lp1737
F0.000833
asI1737
(lp1738
F0.000804
asI1738
(lp1739
F0.000797
asI1739
(lp1740
F0.000903
asI1740
(lp1741
F0.000933
asI1741
(lp1742
F0.000895
asI1742
(lp1743
F0.000928
asI1743
(lp1744
F0.000903
asI1744
(lp1745
F0.0009
asI1745
(lp1746
F0.000925
asI1746
(lp1747
F0.000886
asI1747
(lp1748
F0.001692
asI1748
(lp1749
F0.001502
asI1749
(lp1750
F0.001361
asI1750
(lp1751
F0.002348
asI1751
(lp1752
F0.001577
asI1752
(lp1753
F0.001286
asI1753
(lp1754
F0.00112
asI1754
(lp1755
F0.00089
asI1755
(lp1756
F0.000852
asI1756
(lp1757
F0.00082
asI1757
(lp1758
F0.000839
asI1758
(lp1759
F0.000815
asI1759
(lp1760
F0.000853
asI1760
(lp1761
F0.000833
asI1761
(lp1762
F0.000818
asI1762
(lp1763
F0.00081
asI1763
(lp1764
F0.000854
asI1764
(lp1765
F0.000875
asI1765
(lp1766
F0.000814
asI1766
(lp1767
F0.000811
asI1767
(lp1768
F0.000834
asI1768
(lp1769
F0.002504
asI1769
(lp1770
F0.002534
asI1770
(lp1771
F0.001427
asI1771
(lp1772
F0.001108
asI1772
(lp1773
F0.002198
asI1773
(lp1774
F0.001219
asI1774
(lp1775
F0.000844
asI1775
(lp1776
F0.000844
asI1776
(lp1777
F0.000816
asI1777
(lp1778
F0.000833
asI1778
(lp1779
F0.000823
asI1779
(lp1780
F0.000829
asI1780
(lp1781
F0.000834
asI1781
(lp1782
F0.000819
asI1782
(lp1783
F0.000868
asI1783
(lp1784
F0.000856
asI1784
(lp1785
F0.000815
asI1785
(lp1786
F0.000826
asI1786
(lp1787
F0.000811
asI1787
(lp1788
F0.000861
asI1788
(lp1789
F0.001645
asI1789
(lp1790
F0.001283
asI1790
(lp1791
F0.001239
asI1791
(lp1792
F0.002279
asI1792
(lp1793
F0.001615
asI1793
(lp1794
F0.001454
asI1794
(lp1795
F0.001168
asI1795
(lp1796
F0.000853
asI1796
(lp1797
F0.000833
asI1797
(lp1798
F0.000827
asI1798
(lp1799
F0.000807
asI1799
(lp1800
F0.000823
asI1800
(lp1801
F0.000828
asI1801
(lp1802
F0.00087
asI1802
(lp1803
F0.00089
asI1803
(lp1804
F0.000849
asI1804
(lp1805
F0.000825
asI1805
(lp1806
F0.000819
asI1806
(lp1807
F0.000815
asI1807
(lp1808
F0.000861
asI1808
(lp1809
F0.001412
asI1809
(lp1810
F0.001247
asI1810
(lp1811
F0.001331
asI1811
(lp1812
F0.002534
asI1812
(lp1813
F0.001433
asI1813
(lp1814
F0.001339
asI1814
(lp1815
F0.001151
asI1815
(lp1816
F0.000837
asI1816
(lp1817
F0.000915
asI1817
(lp1818
F0.000897
asI1818
(lp1819
F0.000905
asI1819
(lp1820
F0.00089
asI1820
(lp1821
F0.000907
asI1821
(lp1822
F0.000912
asI1822
(lp1823
F0.000922
asI1823
(lp1824
F0.000899
asI1824
(lp1825
F0.000876
asI1825
(lp1826
F0.000891
asI1826
(lp1827
F0.000914
asI1827
(lp1828
F0.000902
asI1828
(lp1829
F0.002375
asI1829
(lp1830
F0.002594
asI1830
(lp1831
F0.001491
asI1831
(lp1832
F0.002284
asI1832
(lp1833
F0.001324
asI1833
(lp1834
F0.000911
asI1834
(lp1835
F0.000855
asI1835
(lp1836
F0.000906
asI1836
(lp1837
F0.00091
asI1837
(lp1838
F0.000895
asI1838
(lp1839
F0.000896
asI1839
(lp1840
F0.000886
asI1840
(lp1841
F0.000934
asI1841
(lp1842
F0.000909
asI1842
(lp1843
F0.000867
asI1843
(lp1844
F0.000877
asI1844
(lp1845
F0.000873
asI1845
(lp1846
F0.000898
asI1846
(lp1847
F0.0009
asI1847
(lp1848
F0.001701
asI1848
(lp1849
F0.001572
asI1849
(lp1850
F0.001279
asI1850
(lp1851
F0.001682
asI1851
(lp1852
F0.002006
asI1852
(lp1853
F0.001193
asI1853
(lp1854
F0.000839
asI1854
(lp1855
F0.000817
asI1855
(lp1856
F0.000897
asI1856
(lp1857
F0.000892
asI1857
(lp1858
F0.000932
asI1858
(lp1859
F0.000884
asI1859
(lp1860
F0.000889
asI1860
(lp1861
F0.000903
asI1861
(lp1862
F0.000937
asI1862
(lp1863
F0.000824
asI1863
(lp1864
F0.000834
asI1864
(lp1865
F0.000813
asI1865
(lp1866
F0.000863
asI1866
(lp1867
F0.000788
asI1867
(lp1868
F0.001587
asI1868
(lp1869
F0.001186
asI1869
(lp1870
F0.001311
asI1870
(lp1871
F0.002436
asI1871
(lp1872
F0.001561
asI1872
(lp1873
F0.001327
asI1873
(lp1874
F0.001078
asI1874
(lp1875
F0.00095
asI1875
(lp1876
F0.000897
asI1876
(lp1877
F0.000893
asI1877
(lp1878
F0.000894
asI1878
(lp1879
F0.000885
asI1879
(lp1880
F0.000871
asI1880
(lp1881
F0.001012
asI1881
(lp1882
F0.000916
asI1882
(lp1883
F0.00088
asI1883
(lp1884
F0.000904
asI1884
(lp1885
F0.000902
asI1885
(lp1886
F0.000935
asI1886
(lp1887
F0.000852
asI1887
(lp1888
F0.001703
asI1888
(lp1889
F0.00141
asI1889
(lp1890
F0.001884
asI1890
(lp1891
F0.001749
asI1891
(lp1892
F0.001367
asI1892
(lp1893
F0.001728
asI1893
(lp1894
F0.001222
asI1894
(lp1895
F0.000871
asI1895
(lp1896
F0.000806
asI1896
(lp1897
F0.000871
asI1897
(lp1898
F0.000894
asI1898
(lp1899
F0.000866
asI1899
(lp1900
F0.000871
asI1900
(lp1901
F0.000837
asI1901
(lp1902
F0.000922
asI1902
(lp1903
F0.0009
asI1903
(lp1904
F0.000882
asI1904
(lp1905
F0.000923
asI1905
(lp1906
F0.000916
asI1906
(lp1907
F0.000892
asI1907
(lp1908
F0.00152
asI1908
(lp1909
F0.001353
asI1909
(lp1910
F0.001567
asI1910
(lp1911
F0.001704
asI1911
(lp1912
F0.000999
asI1912
(lp1913
F0.001636
asI1913
(lp1914
F0.001289
asI1914
(lp1915
F0.00084
asI1915
(lp1916
F0.000824
asI1916
(lp1917
F0.000851
asI1917
(lp1918
F0.000817
asI1918
(lp1919
F0.000807
asI1919
(lp1920
F0.000813
asI1920
(lp1921
F0.000916
asI1921
(lp1922
F0.00081
asI1922
(lp1923
F0.000814
asI1923
(lp1924
F0.000793
asI1924
(lp1925
F0.000813
asI1925
(lp1926
F0.000902
asI1926
(lp1927
F0.000797
asI1927
(lp1928
F0.000801
asI1928
(lp1929
F0.002497
asI1929
(lp1930
F0.001713
asI1930
(lp1931
F0.001443
asI1931
(lp1932
F0.001722
asI1932
(lp1933
F0.001518
asI1933
(lp1934
F0.001339
asI1934
(lp1935
F0.001109
asI1935
(lp1936
F0.000845
asI1936
(lp1937
F0.000826
asI1937
(lp1938
F0.00083
asI1938
(lp1939
F0.000806
asI1939
(lp1940
F0.000818
asI1940
(lp1941
F0.00095
asI1941
(lp1942
F0.00087
asI1942
(lp1943
F0.000843
asI1943
(lp1944
F0.000784
asI1944
(lp1945
F0.000845
asI1945
(lp1946
F0.000819
asI1946
(lp1947
F0.000821
asI1947
(lp1948
F0.00083
asI1948
(lp1949
F0.000808
asI1949
(lp1950
F0.001554
asI1950
(lp1951
F0.001236
asI1951
(lp1952
F0.001388
asI1952
(lp1953
F0.002495
asI1953
(lp1954
F0.001662
asI1954
(lp1955
F0.001324
asI1955
(lp1956
F0.00111
asI1956
(lp1957
F0.000831
asI1957
(lp1958
F0.000892
asI1958
(lp1959
F0.000901
asI1959
(lp1960
F0.000878
asI1960
(lp1961
F0.000905
asI1961
(lp1962
F0.000935
asI1962
(lp1963
F0.000889
asI1963
(lp1964
F0.000922
asI1964
(lp1965
F0.000924
asI1965
(lp1966
F0.000909
asI1966
(lp1967
F0.000856
asI1967
(lp1968
F0.00085
asI1968
(lp1969
F0.000813
asI1969
(lp1970
F0.001668
asI1970
(lp1971
F0.001364
asI1971
(lp1972
F0.001969
asI1972
(lp1973
F0.00166
asI1973
(lp1974
F0.000976
asI1974
(lp1975
F0.001632
asI1975
(lp1976
F0.001278
asI1976
(lp1977
F0.000866
asI1977
(lp1978
F0.000833
asI1978
(lp1979
F0.000806
asI1979
(lp1980
F0.000843
asI1980
(lp1981
F0.000867
asI1981
(lp1982
F0.000819
asI1982
(lp1983
F0.000815
asI1983
(lp1984
F0.00083
asI1984
(lp1985
F0.000837
asI1985
(lp1986
F0.000765
asI1986
(lp1987
F0.000818
asI1987
(lp1988
F0.000835
asI1988
(lp1989
F0.000826
asI1989
(lp1990
F0.00086
asI1990
(lp1991
F0.001671
asI1991
(lp1992
F0.001452
asI1992
(lp1993
F0.00121
asI1993
(lp1994
F0.001765
asI1994
(lp1995
F0.001259
asI1995
(lp1996
F0.001503
asI1996
(lp1997
F0.001267
asI1997
(lp1998
F0.000862
asI1998
(lp1999
F0.000902
asI1999
(lp2000
F0.000824
asI2000
(lp2001
F0.00083
asI2001
(lp2002
F0.000857
asI2002
(lp2003
F0.000878
asI2003
(lp2004
F0.000864
asI2004
(lp2005
F0.000902
asI2005
(lp2006
F0.000973
asI2006
(lp2007
F0.000932
asI2007
(lp2008
F0.000869
asI2008
(lp2009
F0.000891
asI2009
(lp2010
F0.000846
asI2010
(lp2011
F0.001612
asI2011
(lp2012
F0.001408
asI2012
(lp2013
F0.00203
asI2013
(lp2014
F0.001669
asI2014
(lp2015
F0.000996
asI2015
(lp2016
F0.001581
asI2016
(lp2017
F0.001354
asI2017
(lp2018
F0.000827
asI2018
(lp2019
F0.000837
asI2019
(lp2020
F0.000814
asI2020
(lp2021
F0.000818
asI2021
(lp2022
F0.000837
asI2022
(lp2023
F0.00084
asI2023
(lp2024
F0.000827
asI2024
(lp2025
F0.000797
asI2025
(lp2026
F0.000812
asI2026
(lp2027
F0.000834
asI2027
(lp2028
F0.000841
asI2028
(lp2029
F0.000809
asI2029
(lp2030
F0.000808
asI2030
(lp2031
F0.000825
asI2031
(lp2032
F0.002498
asI2032
(lp2033
F0.002537
asI2033
(lp2034
F0.001486
asI2034
(lp2035
F0.001048
asI2035
(lp2036
F0.002055
asI2036
(lp2037
F0.001141
asI2037
(lp2038
F0.000839
asI2038
(lp2039
F0.000838
asI2039
(lp2040
F0.000803
asI2040
(lp2041
F0.000853
asI2041
(lp2042
F0.000914
asI2042
(lp2043
F0.000903
asI2043
(lp2044
F0.000829
asI2044
(lp2045
F0.000816
asI2045
(lp2046
F0.000871
asI2046
(lp2047
F0.000831
asI2047
(lp2048
F0.00081
asI2048
(lp2049
F0.000815
asI2049
(lp2050
F0.000896
asI2050
(lp2051
F0.000901
asI2051
(lp2052
F0.001929
asI2052
(lp2053
F0.001746
asI2053
(lp2054
F0.001439
asI2054
(lp2055
F0.001449
asI2055
(lp2056
F0.00117
asI2056
(lp2057
F0.001441
asI2057
(lp2058
F0.001213
asI2058
(lp2059
F0.000843
asI2059
(lp2060
F0.000811
asI2060
(lp2061
F0.000861
asI2061
(lp2062
F0.000861
asI2062
(lp2063
F0.00085
asI2063
(lp2064
F0.000826
asI2064
(lp2065
F0.000831
asI2065
(lp2066
F0.000815
asI2066
(lp2067
F0.000846
asI2067
(lp2068
F0.000846
asI2068
(lp2069
F0.000893
asI2069
(lp2070
F0.00087
asI2070
(lp2071
F0.000846
asI2071
(lp2072
F0.001608
asI2072
(lp2073
F0.001413
asI2073
(lp2074
F0.001953
asI2074
(lp2075
F0.001671
asI2075
(lp2076
F0.000997
asI2076
(lp2077
F0.001581
asI2077
(lp2078
F0.001343
asI2078
(lp2079
F0.000855
asI2079
(lp2080
F0.00081
asI2080
(lp2081
F0.000819
asI2081
(lp2082
F0.000882
asI2082
(lp2083
F0.000799
asI2083
(lp2084
F0.000806
asI2084
(lp2085
F0.000815
asI2085
(lp2086
F0.000855
asI2086
(lp2087
F0.00088
asI2087
(lp2088
F0.000821
asI2088
(lp2089
F0.000809
asI2089
(lp2090
F0.00089
asI2090
(lp2091
F0.000887
asI2091
(lp2092
F0.000829
asI2092
(lp2093
F0.001714
asI2093
(lp2094
F0.001513
asI2094
(lp2095
F0.001844
asI2095
(lp2096
F0.00161
asI2096
(lp2097
F0.000942
asI2097
(lp2098
F0.001532
asI2098
(lp2099
F0.001278
asI2099
(lp2100
F0.000857
asI2100
(lp2101
F0.000814
asI2101
(lp2102
F0.00087
asI2102
(lp2103
F0.000847
asI2103
(lp2104
F0.000809
asI2104
(lp2105
F0.000817
asI2105
(lp2106
F0.000817
asI2106
(lp2107
F0.000831
asI2107
(lp2108
F0.000843
asI2108
(lp2109
F0.000811
asI2109
(lp2110
F0.000822
asI2110
(lp2111
F0.000866
asI2111
(lp2112
F0.000848
asI2112
(lp2113
F0.000843
asI2113
(lp2114
F0.0017
asI2114
(lp2115
F0.001273
asI2115
(lp2116
F0.001505
asI2116
(lp2117
F0.001649
asI2117
(lp2118
F0.001049
asI2118
(lp2119
F0.00176
asI2119
(lp2120
F0.001272
asI2120
(lp2121
F0.000944
asI2121
(lp2122
F0.000922
asI2122
(lp2123
F0.000926
asI2123
(lp2124
F0.000899
asI2124
(lp2125
F0.000848
asI2125
(lp2126
F0.000815
asI2126
(lp2127
F0.00083
asI2127
(lp2128
F0.000852
asI2128
(lp2129
F0.000812
asI2129
(lp2130
F0.000854
asI2130
(lp2131
F0.000857
asI2131
(lp2132
F0.000843
asI2132
(lp2133
F0.000808
asI2133
(lp2134
F0.000799
asI2134
(lp2135
F0.001695
asI2135
(lp2136
F0.001286
asI2136
(lp2137
F0.001268
asI2137
(lp2138
F0.002496
asI2138
(lp2139
F0.001454
asI2139
(lp2140
F0.001345
asI2140
(lp2141
F0.001183
asI2141
(lp2142
F0.000867
asI2142
(lp2143
F0.000941
asI2143
(lp2144
F0.000811
asI2144
(lp2145
F0.00081
asI2145
(lp2146
F0.00084
asI2146
(lp2147
F0.000845
asI2147
(lp2148
F0.000921
asI2148
(lp2149
F0.000895
asI2149
(lp2150
F0.000851
asI2150
(lp2151
F0.000806
asI2151
(lp2152
F0.00091
asI2152
(lp2153
F0.000905
asI2153
(lp2154
F0.000863
asI2154
(lp2155
F0.001521
asI2155
(lp2156
F0.001258
asI2156
(lp2157
F0.001348
asI2157
(lp2158
F0.002531
asI2158
(lp2159
F0.001751
asI2159
(lp2160
F0.001327
asI2160
(lp2161
F0.001144
asI2161
(lp2162
F0.000831
asI2162
(lp2163
F0.000914
asI2163
(lp2164
F0.000895
asI2164
(lp2165
F0.000898
asI2165
(lp2166
F0.000941
asI2166
(lp2167
F0.000887
asI2167
(lp2168
F0.000896
asI2168
(lp2169
F0.000808
asI2169
(lp2170
F0.000899
asI2170
(lp2171
F0.000829
asI2171
(lp2172
F0.00081
asI2172
(lp2173
F0.000829
asI2173
(lp2174
F0.000832
asI2174
(lp2175
F0.001616
asI2175
(lp2176
F0.001306
asI2176
(lp2177
F0.001242
asI2177
(lp2178
F0.002391
asI2178
(lp2179
F0.001652
asI2179
(lp2180
F0.001272
asI2180
(lp2181
F0.00112
asI2181
(lp2182
F0.000975
asI2182
(lp2183
F0.000915
asI2183
(lp2184
F0.000902
asI2184
(lp2185
F0.000844
asI2185
(lp2186
F0.00084
asI2186
(lp2187
F0.00089
asI2187
(lp2188
F0.000897
asI2188
(lp2189
F0.000903
asI2189
(lp2190
F0.000895
asI2190
(lp2191
F0.000906
asI2191
(lp2192
F0.00092
asI2192
(lp2193
F0.00091
asI2193
(lp2194
F0.000902
asI2194
(lp2195
F0.00171
asI2195
(lp2196
F0.001535
asI2196
(lp2197
F0.001821
asI2197
(lp2198
F0.001577
asI2198
(lp2199
F0.000985
asI2199
(lp2200
F0.001645
asI2200
(lp2201
F0.001246
asI2201
(lp2202
F0.000868
asI2202
(lp2203
F0.000888
asI2203
(lp2204
F0.000855
asI2204
(lp2205
F0.000887
asI2205
(lp2206
F0.000898
asI2206
(lp2207
F0.000906
asI2207
(lp2208
F0.000843
asI2208
(lp2209
F0.000817
asI2209
(lp2210
F0.000824
asI2210
(lp2211
F0.000824
asI2211
(lp2212
F0.000884
asI2212
(lp2213
F0.000887
asI2213
(lp2214
F0.000913
asI2214
(lp2215
F0.002496
asI2215
(lp2216
F0.002538
asI2216
(lp2217
F0.001492
asI2217
(lp2218
F0.001032
asI2218
(lp2219
F0.002025
asI2219
(lp2220
F0.001129
asI2220
(lp2221
F0.000872
asI2221
(lp2222
F0.000852
asI2222
(lp2223
F0.000851
asI2223
(lp2224
F0.00083
asI2224
(lp2225
F0.000786
asI2225
(lp2226
F0.000833
asI2226
(lp2227
F0.000836
asI2227
(lp2228
F0.000825
asI2228
(lp2229
F0.000811
asI2229
(lp2230
F0.000831
asI2230
(lp2231
F0.00083
asI2231
(lp2232
F0.00083
asI2232
(lp2233
F0.000822
asI2233
(lp2234
F0.000866
asI2234
(lp2235
F0.002606
asI2235
(lp2236
F0.002598
asI2236
(lp2237
F0.001448
asI2237
(lp2238
F0.00103
asI2238
(lp2239
F0.002009
asI2239
(lp2240
F0.001148
asI2240
(lp2241
F0.000878
asI2241
(lp2242
F0.000866
asI2242
(lp2243
F0.000817
asI2243
(lp2244
F0.000816
asI2244
(lp2245
F0.000882
asI2245
(lp2246
F0.000838
asI2246
(lp2247
F0.000886
asI2247
(lp2248
F0.000903
asI2248
(lp2249
F0.000848
asI2249
(lp2250
F0.000894
asI2250
(lp2251
F0.000949
asI2251
(lp2252
F0.000884
asI2252
(lp2253
F0.000886
asI2253
(lp2254
F0.000911
asI2254
(lp2255
F0.001951
asI2255
(lp2256
F0.002634
asI2256
(lp2257
F0.001615
asI2257
(lp2258
F0.001542
asI2258
(lp2259
F0.002047
asI2259
(lp2260
F0.00136
asI2260
(lp2261
F0.000912
asI2261
(lp2262
F0.000878
asI2262
(lp2263
F0.000849
asI2263
(lp2264
F0.000867
asI2264
(lp2265
F0.000906
asI2265
(lp2266
F0.000903
asI2266
(lp2267
F0.000877
asI2267
(lp2268
F0.000845
asI2268
(lp2269
F0.000855
asI2269
(lp2270
F0.000842
asI2270
(lp2271
F0.000842
asI2271
(lp2272
F0.000837
asI2272
(lp2273
F0.000886
asI2273
(lp2274
F0.000852
asI2274
(lp2275
F0.001563
asI2275
(lp2276
F0.00133
asI2276
(lp2277
F0.00123
asI2277
(lp2278
F0.001631
asI2278
(lp2279
F0.002055
asI2279
(lp2280
F0.001402
asI2280
(lp2281
F0.000864
asI2281
(lp2282
F0.00086
asI2282
(lp2283
F0.000827
asI2283
(lp2284
F0.000902
asI2284
(lp2285
F0.000868
asI2285
(lp2286
F0.000839
asI2286
(lp2287
F0.000833
asI2287
(lp2288
F0.000918
asI2288
(lp2289
F0.000843
asI2289
(lp2290
F0.000888
asI2290
(lp2291
F0.000851
asI2291
(lp2292
F0.000906
asI2292
(lp2293
F0.000834
asI2293
(lp2294
F0.000812
asI2294
(lp2295
F0.001761
asI2295
(lp2296
F0.001431
asI2296
(lp2297
F0.001198
asI2297
(lp2298
F0.002284
asI2298
(lp2299
F0.001678
asI2299
(lp2300
F0.00174
asI2300
(lp2301
F0.000996
asI2301
(lp2302
F0.000832
asI2302
(lp2303
F0.000942
asI2303
(lp2304
F0.000917
asI2304
(lp2305
F0.000822
asI2305
(lp2306
F0.000818
asI2306
(lp2307
F0.00082
asI2307
(lp2308
F0.000907
asI2308
(lp2309
F0.000902
asI2309
(lp2310
F0.00088
asI2310
(lp2311
F0.000893
asI2311
(lp2312
F0.000846
asI2312
(lp2313
F0.000834
asI2313
(lp2314
F0.000792
asI2314
(lp2315
F0.001594
asI2315
(lp2316
F0.001232
asI2316
(lp2317
F0.001504
asI2317
(lp2318
F0.001633
asI2318
(lp2319
F0.001049
asI2319
(lp2320
F0.001922
asI2320
(lp2321
F0.001349
asI2321
(lp2322
F0.000818
asI2322
(lp2323
F0.000819
asI2323
(lp2324
F0.000823
asI2324
(lp2325
F0.000901
asI2325
(lp2326
F0.000917
asI2326
(lp2327
F0.000847
asI2327
(lp2328
F0.000835
asI2328
(lp2329
F0.000898
asI2329
(lp2330
F0.000908
asI2330
(lp2331
F0.000951
asI2331
(lp2332
F0.000879
asI2332
(lp2333
F0.000892
asI2333
(lp2334
F0.00086
asI2334
(lp2335
F0.000839
asI2335
(lp2336
F0.001696
asI2336
(lp2337
F0.001934
asI2337
(lp2338
F0.001704
asI2338
(lp2339
F0.001531
asI2339
(lp2340
F0.001089
asI2340
(lp2341
F0.001466
asI2341
(lp2342
F0.001233
asI2342
(lp2343
F0.000923
asI2343
(lp2344
F0.000846
asI2344
(lp2345
F0.000828
asI2345
(lp2346
F0.000807
asI2346
(lp2347
F0.000817
asI2347
(lp2348
F0.000816
asI2348
(lp2349
F0.00082
asI2349
(lp2350
F0.000815
asI2350
(lp2351
F0.000812
asI2351
(lp2352
F0.000848
asI2352
(lp2353
F0.000835
asI2353
(lp2354
F0.000807
asI2354
(lp2355
F0.000807
asI2355
(lp2356
F0.00083
asI2356
(lp2357
F0.002493
asI2357
(lp2358
F0.002554
asI2358
(lp2359
F0.00151
asI2359
(lp2360
F0.001176
asI2360
(lp2361
F0.002176
asI2361
(lp2362
F0.001214
asI2362
(lp2363
F0.000867
asI2363
(lp2364
F0.000856
asI2364
(lp2365
F0.000891
asI2365
(lp2366
F0.000819
asI2366
(lp2367
F0.000806
asI2367
(lp2368
F0.000847
asI2368
(lp2369
F0.000811
asI2369
(lp2370
F0.000814
asI2370
(lp2371
F0.000793
asI2371
(lp2372
F0.000859
asI2372
(lp2373
F0.000823
asI2373
(lp2374
F0.000902
asI2374
(lp2375
F0.00088
asI2375
(lp2376
F0.000874
asI2376
(lp2377
F0.001577
asI2377
(lp2378
F0.001312
asI2378
(lp2379
F0.002008
asI2379
(lp2380
F0.00163
asI2380
(lp2381
F0.001047
asI2381
(lp2382
F0.001624
asI2382
(lp2383
F0.001278
asI2383
(lp2384
F0.000838
asI2384
(lp2385
F0.000849
asI2385
(lp2386
F0.000819
asI2386
(lp2387
F0.000813
asI2387
(lp2388
F0.000809
asI2388
(lp2389
F0.000811
asI2389
(lp2390
F0.000834
asI2390
(lp2391
F0.000807
asI2391
(lp2392
F0.000813
asI2392
(lp2393
F0.000952
asI2393
(lp2394
F0.000865
asI2394
(lp2395
F0.000835
asI2395
(lp2396
F0.000832
asI2396
(lp2397
F0.000819
asI2397
(lp2398
F0.001669
asI2398
(lp2399
F0.00142
asI2399
(lp2400
F0.001874
asI2400
(lp2401
F0.001674
asI2401
(lp2402
F0.000982
asI2402
(lp2403
F0.001529
asI2403
(lp2404
F0.001312
asI2404
(lp2405
F0.00097
asI2405
(lp2406
F0.000843
asI2406
(lp2407
F0.000811
asI2407
(lp2408
F0.000839
asI2408
(lp2409
F0.000841
asI2409
(lp2410
F0.000826
asI2410
(lp2411
F0.000824
asI2411
(lp2412
F0.000834
asI2412
(lp2413
F0.000837
asI2413
(lp2414
F0.000795
asI2414
(lp2415
F0.000805
asI2415
(lp2416
F0.000811
asI2416
(lp2417
F0.000834
asI2417
(lp2418
F0.000813
asI2418
(lp2419
F0.001615
asI2419
(lp2420
F0.001201
asI2420
(lp2421
F0.001278
asI2421
(lp2422
F0.002479
asI2422
(lp2423
F0.001702
asI2423
(lp2424
F0.001292
asI2424
(lp2425
F0.001095
asI2425
(lp2426
F0.000825
asI2426
(lp2427
F0.000817
asI2427
(lp2428
F0.000818
asI2428
(lp2429
F0.000819
asI2429
(lp2430
F0.000839
asI2430
(lp2431
F0.000794
asI2431
(lp2432
F0.000807
asI2432
(lp2433
F0.000851
asI2433
(lp2434
F0.000852
asI2434
(lp2435
F0.000884
asI2435
(lp2436
F0.00082
asI2436
(lp2437
F0.000827
asI2437
(lp2438
F0.000844
asI2438
(lp2439
F0.000848
asI2439
(lp2440
F0.001712
asI2440
(lp2441
F0.001279
asI2441
(lp2442
F0.001489
asI2442
(lp2443
F0.001655
asI2443
(lp2444
F0.00139
asI2444
(lp2445
F0.002025
asI2445
(lp2446
F0.001242
asI2446
(lp2447
F0.000922
asI2447
(lp2448
F0.000865
asI2448
(lp2449
F0.0008
asI2449
(lp2450
F0.000843
asI2450
(lp2451
F0.000855
asI2451
(lp2452
F0.000824
asI2452
(lp2453
F0.000808
asI2453
(lp2454
F0.000842
asI2454
(lp2455
F0.000814
asI2455
(lp2456
F0.000853
asI2456
(lp2457
F0.000818
asI2457
(lp2458
F0.00078
asI2458
(lp2459
F0.000805
asI2459
(lp2460
F0.000873
asI2460
(lp2461
F0.001621
asI2461
(lp2462
F0.001332
asI2462
(lp2463
F0.001962
asI2463
(lp2464
F0.001751
asI2464
(lp2465
F0.000977
asI2465
(lp2466
F0.001618
asI2466
(lp2467
F0.001236
asI2467
(lp2468
F0.000815
asI2468
(lp2469
F0.000811
asI2469
(lp2470
F0.000829
asI2470
(lp2471
F0.000824
asI2471
(lp2472
F0.000843
asI2472
(lp2473
F0.000852
asI2473
(lp2474
F0.000863
asI2474
(lp2475
F0.000867
asI2475
(lp2476
F0.000794
asI2476
(lp2477
F0.000805
asI2477
(lp2478
F0.000818
asI2478
(lp2479
F0.000849
asI2479
(lp2480
F0.000788
asI2480
(lp2481
F0.000892
asI2481
(lp2482
F0.001747
asI2482
(lp2483
F0.002496
asI2483
(lp2484
F0.001373
asI2484
(lp2485
F0.001172
asI2485
(lp2486
F0.001918
asI2486
(lp2487
F0.001184
asI2487
(lp2488
F0.00093
asI2488
(lp2489
F0.000847
asI2489
(lp2490
F0.000853
asI2490
(lp2491
F0.000824
asI2491
(lp2492
F0.000788
asI2492
(lp2493
F0.000813
asI2493
(lp2494
F0.000839
asI2494
(lp2495
F0.000958
asI2495
(lp2496
F0.000859
asI2496
(lp2497
F0.000834
asI2497
(lp2498
F0.000844
asI2498
(lp2499
F0.000861
asI2499
(lp2500
F0.000845
asI2500
(lp2501
F0.000911
asI2501
(lp2502
F0.001708
asI2502
(lp2503
F0.001369
asI2503
(lp2504
F0.001433
asI2504
(lp2505
F0.001746
asI2505
(lp2506
F0.002117
asI2506
(lp2507
F0.001152
asI2507
(lp2508
F0.000871
asI2508
(lp2509
F0.000833
asI2509
(lp2510
F0.000822
asI2510
(lp2511
F0.000808
asI2511
(lp2512
F0.00082
asI2512
(lp2513
F0.000817
asI2513
(lp2514
F0.000808
asI2514
(lp2515
F0.00087
asI2515
(lp2516
F0.000869
asI2516
(lp2517
F0.000836
asI2517
(lp2518
F0.000819
asI2518
(lp2519
F0.000791
asI2519
(lp2520
F0.000806
asI2520
(lp2521
F0.00085
asI2521
(lp2522
F0.000901
asI2522
(lp2523
F0.002474
asI2523
(lp2524
F0.002468
asI2524
(lp2525
F0.001582
asI2525
(lp2526
F0.001563
asI2526
(lp2527
F0.001929
asI2527
(lp2528
F0.001167
asI2528
(lp2529
F0.000877
asI2529
(lp2530
F0.000839
asI2530
(lp2531
F0.000846
asI2531
(lp2532
F0.0008
asI2532
(lp2533
F0.000894
asI2533
(lp2534
F0.00089
asI2534
(lp2535
F0.000845
asI2535
(lp2536
F0.000812
asI2536
(lp2537
F0.000815
asI2537
(lp2538
F0.000829
asI2538
(lp2539
F0.000795
asI2539
(lp2540
F0.000883
asI2540
(lp2541
F0.000881
asI2541
(lp2542
F0.000893
asI2542
(lp2543
F0.001599
asI2543
(lp2544
F0.001467
asI2544
(lp2545
F0.001373
asI2545
(lp2546
F0.002444
asI2546
(lp2547
F0.001469
asI2547
(lp2548
F0.001294
asI2548
(lp2549
F0.001136
asI2549
(lp2550
F0.000833
asI2550
(lp2551
F0.000846
asI2551
(lp2552
F0.000821
asI2552
(lp2553
F0.000796
asI2553
(lp2554
F0.000897
asI2554
(lp2555
F0.000909
asI2555
(lp2556
F0.000855
asI2556
(lp2557
F0.000811
asI2557
(lp2558
F0.000816
asI2558
(lp2559
F0.000893
asI2559
(lp2560
F0.000837
asI2560
(lp2561
F0.000869
asI2561
(lp2562
F0.000826
asI2562
(lp2563
F0.000896
asI2563
(lp2564
F0.001714
asI2564
(lp2565
F0.001519
asI2565
(lp2566
F0.001805
asI2566
(lp2567
F0.001519
asI2567
(lp2568
F0.001
asI2568
(lp2569
F0.001524
asI2569
(lp2570
F0.001248
asI2570
(lp2571
F0.000831
asI2571
(lp2572
F0.000802
asI2572
(lp2573
F0.000797
asI2573
(lp2574
F0.000813
asI2574
(lp2575
F0.000864
asI2575
(lp2576
F0.000844
asI2576
(lp2577
F0.000798
asI2577
(lp2578
F0.00081
asI2578
(lp2579
F0.000811
asI2579
(lp2580
F0.000834
asI2580
(lp2581
F0.00079
asI2581
(lp2582
F0.00088
asI2582
(lp2583
F0.000921
asI2583
(lp2584
F0.000911
asI2584
(lp2585
F0.001702
asI2585
(lp2586
F0.001529
asI2586
(lp2587
F0.001793
asI2587
(lp2588
F0.001555
asI2588
(lp2589
F0.000969
asI2589
(lp2590
F0.001567
asI2590
(lp2591
F0.001316
asI2591
(lp2592
F0.000827
asI2592
(lp2593
F0.000834
asI2593
(lp2594
F0.00081
asI2594
(lp2595
F0.000797
asI2595
(lp2596
F0.000886
asI2596
(lp2597
F0.000846
asI2597
(lp2598
F0.000814
asI2598
(lp2599
F0.000797
asI2599
(lp2600
F0.000808
asI2600
(lp2601
F0.000818
asI2601
(lp2602
F0.000812
asI2602
(lp2603
F0.000832
asI2603
(lp2604
F0.000822
asI2604
(lp2605
F0.000822
asI2605
(lp2606
F0.002527
asI2606
(lp2607
F0.002574
asI2607
(lp2608
F0.001705
asI2608
(lp2609
F0.001396
asI2609
(lp2610
F0.002061
asI2610
(lp2611
F0.001278
asI2611
(lp2612
F0.000918
asI2612
(lp2613
F0.000891
asI2613
(lp2614
F0.000885
asI2614
(lp2615
F0.00092
asI2615
(lp2616
F0.000956
asI2616
(lp2617
F0.000916
asI2617
(lp2618
F0.000961
asI2618
(lp2619
F0.000925
asI2619
(lp2620
F0.000849
asI2620
(lp2621
F0.000845
asI2621
(lp2622
F0.000943
asI2622
(lp2623
F0.000848
asI2623
(lp2624
F0.001011
asI2624
(lp2625
F0.002413
asI2625
(lp2626
F0.002442
asI2626
(lp2627
F0.001477
asI2627
(lp2628
F0.001049
asI2628
(lp2629
F0.002059
asI2629
(lp2630
F0.001096
asI2630
(lp2631
F0.000842
asI2631
(lp2632
F0.000814
asI2632
(lp2633
F0.000815
asI2633
(lp2634
F0.000796
asI2634
(lp2635
F0.000933
asI2635
(lp2636
F0.000945
asI2636
(lp2637
F0.000883
asI2637
(lp2638
F0.00087
asI2638
(lp2639
F0.00087
asI2639
(lp2640
F0.000865
asI2640
(lp2641
F0.000879
asI2641
(lp2642
F0.000876
asI2642
(lp2643
F0.000828
asI2643
(lp2644
F0.000885
asI2644
(lp2645
F0.002479
asI2645
(lp2646
F0.002574
asI2646
(lp2647
F0.001501
asI2647
(lp2648
F0.001044
asI2648
(lp2649
F0.001991
asI2649
(lp2650
F0.00111
asI2650
(lp2651
F0.000856
asI2651
(lp2652
F0.000861
asI2652
(lp2653
F0.000845
asI2653
(lp2654
F0.00081
asI2654
(lp2655
F0.000866
asI2655
(lp2656
F0.000841
asI2656
(lp2657
F0.000813
asI2657
(lp2658
F0.000817
asI2658
(lp2659
F0.000803
asI2659
(lp2660
F0.000804
asI2660
(lp2661
F0.000853
asI2661
(lp2662
F0.000791
asI2662
(lp2663
F0.000802
asI2663
(lp2664
F0.000829
asI2664
(lp2665
F0.002569
asI2665
(lp2666
F0.002602
asI2666
(lp2667
F0.001479
asI2667
(lp2668
F0.00104
asI2668
(lp2669
F0.00209
asI2669
(lp2670
F0.001102
asI2670
(lp2671
F0.000878
asI2671
(lp2672
F0.000841
asI2672
(lp2673
F0.000813
asI2673
(lp2674
F0.000842
asI2674
(lp2675
F0.000853
asI2675
(lp2676
F0.000827
asI2676
(lp2677
F0.00081
asI2677
(lp2678
F0.000811
asI2678
(lp2679
F0.000835
asI2679
(lp2680
F0.000849
asI2680
(lp2681
F0.000915
asI2681
(lp2682
F0.000903
asI2682
(lp2683
F0.000891
asI2683
(lp2684
F0.000889
asI2684
(lp2685
F0.001752
asI2685
(lp2686
F0.001527
asI2686
(lp2687
F0.001355
asI2687
(lp2688
F0.001678
asI2688
(lp2689
F0.001113
asI2689
(lp2690
F0.001551
asI2690
(lp2691
F0.001315
asI2691
(lp2692
F0.00086
asI2692
(lp2693
F0.00084
asI2693
(lp2694
F0.000797
asI2694
(lp2695
F0.000937
asI2695
(lp2696
F0.000962
asI2696
(lp2697
F0.0009
asI2697
(lp2698
F0.000901
asI2698
(lp2699
F0.000923
asI2699
(lp2700
F0.000875
asI2700
(lp2701
F0.000891
asI2701
(lp2702
F0.000861
asI2702
(lp2703
F0.000847
asI2703
(lp2704
F0.000825
asI2704
(lp2705
F0.000829
asI2705
(lp2706
F0.001715
asI2706
(lp2707
F0.002229
asI2707
(lp2708
F0.001456
asI2708
(lp2709
F0.001394
asI2709
(lp2710
F0.001313
asI2710
(lp2711
F0.00147
asI2711
(lp2712
F0.001077
asI2712
(lp2713
F0.000858
asI2713
(lp2714
F0.0009
asI2714
(lp2715
F0.000925
asI2715
(lp2716
F0.000938
asI2716
(lp2717
F0.000915
asI2717
(lp2718
F0.000918
asI2718
(lp2719
F0.000914
asI2719
(lp2720
F0.000968
asI2720
(lp2721
F0.000848
asI2721
(lp2722
F0.000846
asI2722
(lp2723
F0.000816
asI2723
(lp2724
F0.000801
asI2724
(lp2725
F0.000829
asI2725
(lp2726
F0.001664
asI2726
(lp2727
F0.001351
asI2727
(lp2728
F0.001234
asI2728
(lp2729
F0.001537
asI2729
(lp2730
F0.001017
asI2730
(lp2731
F0.001536
asI2731
(lp2732
F0.001208
asI2732
(lp2733
F0.000842
asI2733
(lp2734
F0.000929
asI2734
(lp2735
F0.000838
asI2735
(lp2736
F0.000821
asI2736
(lp2737
F0.000822
asI2737
(lp2738
F0.000814
asI2738
(lp2739
F0.000815
asI2739
(lp2740
F0.000823
asI2740
(lp2741
F0.000873
asI2741
(lp2742
F0.000814
asI2742
(lp2743
F0.000807
asI2743
(lp2744
F0.000825
asI2744
(lp2745
F0.00081
asI2745
(lp2746
F0.000814
asI2746
(lp2747
F0.001505
asI2747
(lp2748
F0.001187
asI2748
(lp2749
F0.001372
asI2749
(lp2750
F0.002671
asI2750
(lp2751
F0.001586
asI2751
(lp2752
F0.001345
asI2752
(lp2753
F0.001166
asI2753
(lp2754
F0.000868
asI2754
(lp2755
F0.000851
asI2755
(lp2756
F0.000821
asI2756
(lp2757
F0.000797
asI2757
(lp2758
F0.000821
asI2758
(lp2759
F0.000817
asI2759
(lp2760
F0.000846
asI2760
(lp2761
F0.000832
asI2761
(lp2762
F0.000828
asI2762
(lp2763
F0.000945
asI2763
(lp2764
F0.000816
asI2764
(lp2765
F0.00088
asI2765
(lp2766
F0.000904
asI2766
(lp2767
F0.001874
asI2767
(lp2768
F0.001313
asI2768
(lp2769
F0.001559
asI2769
(lp2770
F0.001633
asI2770
(lp2771
F0.001342
asI2771
(lp2772
F0.001678
asI2772
(lp2773
F0.001238
asI2773
(lp2774
F0.00093
asI2774
(lp2775
F0.000952
asI2775
(lp2776
F0.000852
asI2776
(lp2777
F0.000898
asI2777
(lp2778
F0.000858
asI2778
(lp2779
F0.000823
asI2779
(lp2780
F0.000812
asI2780
(lp2781
F0.000834
asI2781
(lp2782
F0.000829
asI2782
(lp2783
F0.000812
asI2783
(lp2784
F0.000826
asI2784
(lp2785
F0.000819
asI2785
(lp2786
F0.000819
asI2786
(lp2787
F0.000905
asI2787
(lp2788
F0.001692
asI2788
(lp2789
F0.00136
asI2789
(lp2790
F0.001172
asI2790
(lp2791
F0.001507
asI2791
(lp2792
F0.000979
asI2792
(lp2793
F0.00154
asI2793
(lp2794
F0.001287
asI2794
(lp2795
F0.000868
asI2795
(lp2796
F0.00081
asI2796
(lp2797
F0.00081
asI2797
(lp2798
F0.000817
asI2798
(lp2799
F0.000879
asI2799
(lp2800
F0.000934
asI2800
(lp2801
F0.000881
asI2801
(lp2802
F0.000839
asI2802
(lp2803
F0.00082
asI2803
(lp2804
F0.000831
asI2804
(lp2805
F0.00084
asI2805
(lp2806
F0.000899
asI2806
(lp2807
F0.000861
asI2807
(lp2808
F0.000814
asI2808
(lp2809
F0.001625
asI2809
(lp2810
F0.001255
asI2810
(lp2811
F0.001517
asI2811
(lp2812
F0.001648
asI2812
(lp2813
F0.001052
asI2813
(lp2814
F0.001632
asI2814
(lp2815
F0.001309
asI2815
(lp2816
F0.000863
asI2816
(lp2817
F0.00084
asI2817
(lp2818
F0.000842
asI2818
(lp2819
F0.0008
asI2819
(lp2820
F0.000804
asI2820
(lp2821
F0.000822
asI2821
(lp2822
F0.00093
asI2822
(lp2823
F0.000837
asI2823
(lp2824
F0.000804
asI2824
(lp2825
F0.000836
asI2825
(lp2826
F0.000803
asI2826
(lp2827
F0.000788
asI2827
(lp2828
F0.000865
asI2828
(lp2829
F0.000841
asI2829
(lp2830
F0.001607
asI2830
(lp2831
F0.001346
asI2831
(lp2832
F0.001949
asI2832
(lp2833
F0.001676
asI2833
(lp2834
F0.000972
asI2834
(lp2835
F0.001562
asI2835
(lp2836
F0.001486
asI2836
(lp2837
F0.000862
asI2837
(lp2838
F0.000861
asI2838
(lp2839
F0.000818
asI2839
(lp2840
F0.000812
asI2840
(lp2841
F0.000811
asI2841
(lp2842
F0.000834
asI2842
(lp2843
F0.000836
asI2843
(lp2844
F0.000816
asI2844
(lp2845
F0.000817
asI2845
(lp2846
F0.000832
asI2846
(lp2847
F0.000822
asI2847
(lp2848
F0.000836
asI2848
(lp2849
F0.000839
asI2849
(lp2850
F0.000815
asI2850
(lp2851
F0.002535
asI2851
(lp2852
F0.00254
asI2852
(lp2853
F0.001434
asI2853
(lp2854
F0.001295
asI2854
(lp2855
F0.001674
asI2855
(lp2856
F0.001387
asI2856
(lp2857
F0.000851
asI2857
(lp2858
F0.000842
asI2858
(lp2859
F0.000855
asI2859
(lp2860
F0.000829
asI2860
(lp2861
F0.0008
asI2861
(lp2862
F0.000869
asI2862
(lp2863
F0.000831
asI2863
(lp2864
F0.000813
asI2864
(lp2865
F0.000806
asI2865
(lp2866
F0.000818
asI2866
(lp2867
F0.000827
asI2867
(lp2868
F0.000824
asI2868
(lp2869
F0.000844
asI2869
(lp2870
F0.000818
asI2870
(lp2871
F0.00251
asI2871
(lp2872
F0.002322
asI2872
(lp2873
F0.001526
asI2873
(lp2874
F0.001164
asI2874
(lp2875
F0.002048
asI2875
(lp2876
F0.00145
asI2876
(lp2877
F0.000916
asI2877
(lp2878
F0.000851
asI2878
(lp2879
F0.000823
asI2879
(lp2880
F0.000815
asI2880
(lp2881
F0.000813
asI2881
(lp2882
F0.000907
asI2882
(lp2883
F0.000824
asI2883
(lp2884
F0.000808
asI2884
(lp2885
F0.000829
asI2885
(lp2886
F0.000809
asI2886
(lp2887
F0.000818
asI2887
(lp2888
F0.000812
asI2888
(lp2889
F0.000878
asI2889
(lp2890
F0.000827
asI2890
(lp2891
F0.002529
asI2891
(lp2892
F0.002623
asI2892
(lp2893
F0.001558
asI2893
(lp2894
F0.001438
asI2894
(lp2895
F0.00218
asI2895
(lp2896
F0.001235
asI2896
(lp2897
F0.000861
asI2897
(lp2898
F0.000832
asI2898
(lp2899
F0.000862
asI2899
(lp2900
F0.000873
asI2900
(lp2901
F0.000834
asI2901
(lp2902
F0.000883
asI2902
(lp2903
F0.000811
asI2903
(lp2904
F0.000809
asI2904
(lp2905
F0.000833
asI2905
(lp2906
F0.000819
asI2906
(lp2907
F0.000814
asI2907
(lp2908
F0.000866
asI2908
(lp2909
F0.000868
asI2909
(lp2910
F0.000984
asI2910
(lp2911
F0.001585
asI2911
(lp2912
F0.001747
asI2912
(lp2913
F0.001277
asI2913
(lp2914
F0.002294
asI2914
(lp2915
F0.001332
asI2915
(lp2916
F0.000862
asI2916
(lp2917
F0.000888
asI2917
(lp2918
F0.000831
asI2918
(lp2919
F0.000864
asI2919
(lp2920
F0.00085
asI2920
(lp2921
F0.000925
asI2921
(lp2922
F0.000838
asI2922
(lp2923
F0.00082
asI2923
(lp2924
F0.000813
asI2924
(lp2925
F0.000809
asI2925
(lp2926
F0.000807
asI2926
(lp2927
F0.000875
asI2927
(lp2928
F0.000803
asI2928
(lp2929
F0.000791
asI2929
(lp2930
F0.000813
asI2930
(lp2931
F0.002585
asI2931
(lp2932
F0.001739
asI2932
(lp2933
F0.001217
asI2933
(lp2934
F0.001679
asI2934
(lp2935
F0.001697
asI2935
(lp2936
F0.001321
asI2936
(lp2937
F0.00105
asI2937
(lp2938
F0.000992
asI2938
(lp2939
F0.001083
asI2939
(lp2940
F0.000961
asI2940
(lp2941
F0.00088
asI2941
(lp2942
F0.000805
asI2942
(lp2943
F0.000844
asI2943
(lp2944
F0.000853
asI2944
(lp2945
F0.000811
asI2945
(lp2946
F0.000818
asI2946
(lp2947
F0.000842
asI2947
(lp2948
F0.000853
asI2948
(lp2949
F0.000802
asI2949
(lp2950
F0.000809
asI2950
(lp2951
F0.00169
asI2951
(lp2952
F0.001346
asI2952
(lp2953
F0.00191
asI2953
(lp2954
F0.00163
asI2954
(lp2955
F0.001051
asI2955
(lp2956
F0.001588
asI2956
(lp2957
F0.001259
asI2957
(lp2958
F0.000884
asI2958
(lp2959
F0.000844
asI2959
(lp2960
F0.000819
asI2960
(lp2961
F0.000947
asI2961
(lp2962
F0.000882
asI2962
(lp2963
F0.000888
asI2963
(lp2964
F0.000873
asI2964
(lp2965
F0.000852
asI2965
(lp2966
F0.000898
asI2966
(lp2967
F0.000931
asI2967
(lp2968
F0.000873
asI2968
(lp2969
F0.000917
asI2969
(lp2970
F0.000892
asI2970
(lp2971
F0.001754
asI2971
(lp2972
F0.001435
asI2972
(lp2973
F0.001391
asI2973
(lp2974
F0.002413
asI2974
(lp2975
F0.001604
asI2975
(lp2976
F0.001301
asI2976
(lp2977
F0.001032
asI2977
(lp2978
F0.000862
asI2978
(lp2979
F0.000975
asI2979
(lp2980
F0.000955
asI2980
(lp2981
F0.00087
asI2981
(lp2982
F0.000836
asI2982
(lp2983
F0.000827
asI2983
(lp2984
F0.000906
asI2984
(lp2985
F0.00092
asI2985
(lp2986
F0.000907
asI2986
(lp2987
F0.000876
asI2987
(lp2988
F0.000896
asI2988
(lp2989
F0.000893
asI2989
(lp2990
F0.000844
asI2990
(lp2991
F0.001722
asI2991
(lp2992
F0.001443
asI2992
(lp2993
F0.001436
asI2993
(lp2994
F0.002465
asI2994
(lp2995
F0.001811
asI2995
(lp2996
F0.001442
asI2996
(lp2997
F0.001076
asI2997
(lp2998
F0.000895
asI2998
(lp2999
F0.000905
asI2999
(lp3000
F0.00089
as.